(dp0
I1
(dp1
S'slope'
p2
F-7.7664106233871815
sS'offset'
p3
F411.24933078591056
ssI2
(dp4
g2
F-7.765812644706722
sg3
F239.7664212854
ssI3
(dp5
g2
F-7.769834015708934
sg3
F278.8345001473913
ssI4
(dp6
g2
F-7.759126443529432
sg3
F259.2938621771181
ssI5
(dp7
g2
F-7.770452658503529
sg3
F445.02253513313514
ssI6
(dp8
g2
F-7.769557180007803
sg3
F288.99600653324575
ssI7
(dp9
g2
F-7.7695277030659256
sg3
F359.84605081414554
ssI8
(dp10
g2
F-7.763534528410964
sg3
F338.52260168293833
ssI9
(dp11
g2
F-7.7658691850575465
sg3
F336.1404780234478
ssI10
(dp12
g2
F-7.763226000267071
sg3
F359.9189348744776
ssI11
(dp13
g2
F-7.766449209573967
sg3
F388.7023374897075
ssI12
(dp14
g2
F-7.765429449831631
sg3
F321.29991115031964
ssI13
(dp15
g2
F-7.763517270369572
sg3
F367.4009191387778
ssI14
(dp16
g2
F-7.762254550198766
sg3
F293.14363753653186
ssI15
(dp17
g2
F-7.768585806588576
sg3
F333.3083667673971
ssI16
(dp18
g2
F-7.769630309486363
sg3
F354.8160537348692
ss.(dp0
I1
(dp1
I0
(dp2
S'std'
p3
cnumpy.core.multiarray
scalar
p4
(cnumpy
dtype
p5
(S'f8'
p6
I0
I1
tp7
Rp8
(I3
S'<'
p9
NNNI-1
I-1
I0
tp10
bS'\x17\xb9\xbd\x1c\x96\x19Z>'
p11
tp12
Rp13
sS'max'
p14
F1.645864e-05
sS'min'
p15
F1.638854e-05
sS'mean'
p16
g4
(g8
S'A\xecQ\xb9Y7\xf1>'
p17
tp18
Rp19
ssI16000
(dp20
g3
g4
(g8
S'\xe8\xda\xc6\xda\x85?b>'
p21
tp22
Rp23
sg14
F-0.004954946
sg15
F-0.004955058
sg16
g4
(g8
S'\xfa\xb1~\xb9\xb3Kt\xbf'
p24
tp25
Rp26
ssI900
(dp27
g3
g4
(g8
S'\r\x9dQ\xcf\xb4W~>'
p28
tp29
Rp30
sg14
F-0.0002629895
sg15
F-0.0002635089
sg16
g4
(g8
S'\xb3\x08p2\x1d>1\xbf'
p31
tp32
Rp33
ssI37000
(dp34
g3
g4
(g8
S'\x8f|%\xbaDdt>'
p35
tp36
Rp37
sg14
F-0.01147496
sg15
F-0.01147522
sg16
g4
(g8
S'\x06\xee\x99U:\x80\x87\xbf'
p38
tp39
Rp40
ssI400
(dp41
g3
g4
(g8
S'\xa1\x12N\xd0b\xafR>'
p42
tp43
Rp44
sg14
F-0.0001076007
sg15
F-0.0001076597
sg16
g4
(g8
S'\x818e\x97\x1b7\x1c\xbf'
p45
tp46
Rp47
ssI600
(dp48
g3
g4
(g8
S"\r\xe1\xd9}'\xfb\\>"
p49
tp50
Rp51
sg14
F-0.0001697196
sg15
F-0.0001698076
sg16
g4
(g8
S'2\xf4\xbe\xb0\xcf@&\xbf'
p52
tp53
Rp54
ssI31000
(dp55
g3
g4
(g8
S'\x13.\xcf\xd8\xf5\x18e>'
p56
tp57
Rp58
sg14
F-0.009612153
sg15
F-0.00961227
sg16
g4
(g8
S'E\x9aW\xf9\x8e\xaf\x83\xbf'
p59
tp60
Rp61
ssI25
(dp62
g3
g4
(g8
S'\xbc\xca\xed\xcaR\xdab>'
p63
tp64
Rp65
sg14
F8.939456e-06
sg15
F8.821899e-06
sg16
g4
(g8
S'\xe0=i\x97M\x9e\xe2>'
p66
tp67
Rp68
ssI800
(dp69
g3
g4
(g8
S'\x82"\xbat`\xe1`>'
p70
tp71
Rp72
sg14
F-0.0002318384
sg15
F-0.0002319512
sg16
g4
(g8
S'\xa9m\x82\x05Ae.\xbf'
p73
tp74
Rp75
ssI25000
(dp76
g3
g4
(g8
S'S\xf4\xa7\xb0\xda\x9ca>'
p77
tp78
Rp79
sg14
F-0.007749775
sg15
F-0.007749883
sg16
g4
(g8
S'\xfc\xda\xe9\x80G\xbe\x7f\xbf'
p80
tp81
Rp82
ssI300
(dp83
g3
g4
(g8
S'\x98KN\xf6\x04\x9eQ>'
p84
tp85
Rp86
sg14
F-7.653332e-05
sg15
F-7.659335e-05
sg16
g4
(g8
S'\x07\xc5\xc3i\x12\x12\x14\xbf'
p87
tp88
Rp89
ssI13000
(dp90
g3
g4
(g8
S'\xeb\x1a\xf0\x9e$\xa8`>'
p91
tp92
Rp93
sg14
F-0.004022781
sg15
F-0.004022909
sg16
g4
(g8
S'u\n\xd8\xe5Lzp\xbf'
p94
tp95
Rp96
ssI50
(dp97
g3
g4
(g8
S'\xd22u\xbb\xd63[>'
p98
tp99
Rp100
sg14
F1.107836e-06
sg15
F1.023927e-06
sg16
g4
(g8
S'\x1f]0\xb0k\xf9\xb1>'
p101
tp102
Rp103
ssI19000
(dp104
g3
g4
(g8
S'\xd2\x90\xfat\x87\xccQ>'
p105
tp106
Rp107
sg14
F-0.005886609
sg15
F-0.005886682
sg16
g4
(g8
S'w\xca\xf9\x0f\x9b\x1cx\xbf'
p108
tp109
Rp110
ssI700
(dp111
g3
g4
(g8
S'E\x8e\xf8\x81\x1a`~>'
p112
tp113
Rp114
sg14
F-0.0002003857
sg15
F-0.0002008595
sg16
g4
(g8
S'\xa4\x07\x05A\xb5Q*\xbf'
p115
tp116
Rp117
ssI40000
(dp118
g3
g4
(g8
S'\xf6\xcc\xda\x93\xff\xd2{>'
p119
tp120
Rp121
sg14
F-0.0124059
sg15
F-0.01240625
sg16
g4
(g8
S'4\x00\xf3GSh\x89\xbf'
p122
tp123
Rp124
ssI4000
(dp125
g3
g4
(g8
S'f>.\x87\xf0\\\x7f>'
p126
tp127
Rp128
sg14
F-0.001226699
sg15
F-0.001227214
sg16
g4
(g8
S'\xe1\xfa\x13:\x85\x19T\xbf'
p129
tp130
Rp131
ssI200
(dp132
g3
g4
(g8
S"\xc0\xdd\xa8'H\x1cV>"
p133
tp134
Rp135
sg14
F-4.540677e-05
sg15
F-4.547722e-05
sg16
g4
(g8
S't\x0c\xfd=\x03\xd4\x07\xbf'
p136
tp137
Rp138
ssI75
(dp139
g3
g4
(g8
S'\xb14\xd4\xf1\x89![>'
p140
tp141
Rp142
sg14
F-6.756271e-06
sg15
F-6.83684e-06
sg16
g4
(g8
S'\xbfC\xc0\xbf\xfc\x80\xdc\xbe'
p143
tp144
Rp145
ssI34000
(dp146
g3
g4
(g8
S'o&N\x95\x1c\x17m>'
p147
tp148
Rp149
sg14
F-0.0105434
sg15
F-0.01054359
sg16
g4
(g8
S'Z/7,\xce\x97\x85\xbf'
p150
tp151
Rp152
ssI7000
(dp153
g3
g4
(g8
S'=0g`\xe8NX>'
p154
tp155
Rp156
sg14
F-0.002159243
sg15
F-0.002159333
sg16
g4
(g8
S'W\x0f|\xac]\xb0a\xbf'
p157
tp158
Rp159
ssI28000
(dp160
g3
g4
(g8
S')j\xaa\x85~\x08b>'
p161
tp162
Rp163
sg14
F-0.008680642
sg15
F-0.008680762
sg16
g4
(g8
S'\x00\xf3\x8d\xc6.\xc7\x81\xbf'
p164
tp165
Rp166
ssI10000
(dp167
g3
g4
(g8
S'{\xd9tub\xad\\>'
p168
tp169
Rp170
sg14
F-0.003090987
sg15
F-0.003091085
sg16
g4
(g8
S'>\xbfr<[Ri\xbf'
p171
tp172
Rp173
ssI100
(dp174
g3
g4
(g8
S'\xd8\x94M\x03\x1a*H>'
p175
tp176
Rp177
sg14
F-1.428749e-05
sg15
F-1.432687e-05
sg16
g4
(g8
S'\xf2S\xca\xfdQ\xff\xed\xbe'
p178
tp179
Rp180
ssI1000
(dp181
g3
g4
(g8
S'\xcc\xfdu]b6\x80>'
p182
tp183
Rp184
sg14
F-0.0002942539
sg15
F-0.0002947682
sg16
g4
(g8
S'>F\xf8\xbd\x04J3\xbf'
p185
tp186
Rp187
ssI22000
(dp188
g3
g4
(g8
S'\xb1s\x004\xd5\x1eU>'
p189
tp190
Rp191
sg14
F-0.006818525
sg15
F-0.006818601
sg16
g4
(g8
S'GA\x1f\xc4\xc8\xed{\xbf'
p192
tp193
Rp194
ssI500
(dp195
g3
g4
(g8
S'w\xc9\x0f\xc7s\x8eR>'
p196
tp197
Rp198
sg14
F-0.0001388745
sg15
F-0.000138938
sg16
g4
(g8
S'\xcf\xc2\x90\x9c\n5"\xbf'
p199
tp200
Rp201
sssI2
(dp202
I0
(dp203
g3
g4
(g8
S'\xc2\xd7\xa3ebId>'
p204
tp205
Rp206
sg14
F9.274341e-06
sg15
F9.124441e-06
sg16
g4
(g8
S'\xac\x95\xd2|[`\xe3>'
p207
tp208
Rp209
ssI16000
(dp210
g3
g4
(g8
S'\x9bW\xe7\xeb oV>'
p211
tp212
Rp213
sg14
F-0.00495936
sg15
F-0.004959438
sg16
g4
(g8
S'\x04H\xff\x8eRPt\xbf'
p214
tp215
Rp216
ssI900
(dp217
g3
g4
(g8
S'G\x9c\xa1H\xf4>\x81>'
p218
tp219
Rp220
sg14
F-0.0002696982
sg15
F-0.0002702448
sg16
g4
(g8
S'\x84\xb88\xb4\xff\xad1\xbf'
p221
tp222
Rp223
ssI37000
(dp224
g3
g4
(g8
S'\xefV\xaa\xc8\xfe\x84a>'
p225
tp226
Rp227
sg14
F-0.01148522
sg15
F-0.01148533
sg16
g4
(g8
S'c^\x80\xae\x95\x85\x87\xbf'
p228
tp229
Rp230
ssI400
(dp231
g3
g4
(g8
S'sZ(_\xee\xb4V>'
p232
tp233
Rp234
sg14
F-0.0001145524
sg15
F-0.0001146399
sg16
g4
(g8
S'\xd5\xcfh\xaa5\n\x1e\xbf'
p235
tp236
Rp237
ssI600
(dp238
g3
g4
(g8
S'\xd9\xca\xd2\xc7gWW>'
p239
tp240
Rp241
sg14
F-0.0001768867
sg15
F-0.0001769696
sg16
g4
(g8
S"\xde\xf3\xc8\x05\xb30'\xbf"
p242
tp243
Rp244
ssI31000
(dp245
g3
g4
(g8
S'\x8b\x10r\xd1\xcf\xcf_>'
p246
tp247
Rp248
sg14
F-0.009620442
sg15
F-0.009620533
sg16
g4
(g8
S'\x81*C\x13\xe7\xb3\x83\xbf'
p249
tp250
Rp251
ssI25
(dp252
g3
g4
(g8
S'\xf3\x14[\x03\xdf\xd4V>'
p253
tp254
Rp255
sg14
F1.539265e-06
sg15
F1.469689e-06
sg16
g4
(g8
S'\xe0\x80\x8f\x9cK-\xb9>'
p256
tp257
Rp258
ssI800
(dp259
g3
g4
(g8
S'\x0e\x01\x93ZS\tv>'
p260
tp261
Rp262
sg14
F-0.0002385123
sg15
F-0.0002388807
sg16
g4
(g8
S'^\xd8\x03y\xb6E/\xbf'
p263
tp264
Rp265
ssI25000
(dp266
g3
g4
(g8
S'[\x1a\xe1NU\x88V>'
p267
tp268
Rp269
sg14
F-0.007756172
sg15
F-0.007756255
sg16
g4
(g8
S'\xd7\x7frd\xf9\xc4\x7f\xbf'
p270
tp271
Rp272
ssI300
(dp273
g3
g4
(g8
S'\xbd#\xa4\xd0\xbf,T>'
p274
tp275
Rp276
sg14
F-8.352588e-05
sg15
F-8.360024e-05
sg16
g4
(g8
S'\xc7\x03\x9a\xc8K\xe7\x15\xbf'
p277
tp278
Rp279
ssI13000
(dp280
g3
g4
(g8
S'|]\xd6\x8cUIY>'
p281
tp282
Rp283
sg14
F-0.004027921
sg15
F-0.004028007
sg16
g4
(g8
S'\x02\xe4\xa9\x9f\xa1\x7fp\xbf'
p284
tp285
Rp286
ssI50
(dp287
g3
g4
(g8
S'\x9a\xf9I\xe8\x848Q>'
p288
tp289
Rp290
sg14
F-6.357274e-06
sg15
F-6.408975e-06
sg16
g4
(g8
S'\x1b{M7\xec\xcd\xda\xbe'
p291
tp292
Rp293
ssI19000
(dp294
g3
g4
(g8
S'\nH\xe1c\x16\x8d]>'
p295
tp296
Rp297
sg14
F-0.005891344
sg15
F-0.005891443
sg16
g4
(g8
S'\xcf\xa3\x98\xbb\x93!x\xbf'
p298
tp299
Rp300
ssI700
(dp301
g3
g4
(g8
S'\xcf\xa5\xbe\xed\xce/^>'
p302
tp303
Rp304
sg14
F-0.0002079393
sg15
F-0.0002080551
sg16
g4
(g8
S'\xa7x\xbc\xc6\xb7B+\xbf'
p305
tp306
Rp307
ssI40000
(dp308
g3
g4
(g8
S'T\xd4R+\xf5\x19g>'
p309
tp310
Rp311
sg14
F-0.01241761
sg15
F-0.01241776
sg16
g4
(g8
S"\xa44'\xa2on\x89\xbf"
p312
tp313
Rp314
ssI4000
(dp315
g3
g4
(g8
S'\xb5P\xb6\x01\xa1\xda\x82>'
p316
tp317
Rp318
sg14
F-0.001232612
sg15
F-0.001233201
sg16
g4
(g8
S'W\xae\x80\x91:2T\xbf'
p319
tp320
Rp321
ssI200
(dp322
g3
g4
(g8
S'-he\x90\x0b\nQ>'
p323
tp324
Rp325
sg14
F-5.275814e-05
sg15
F-5.281621e-05
sg16
g4
(g8
S'\xec\x89\xf3F$\xad\x0b\xbf'
p326
tp327
Rp328
ssI75
(dp329
g3
g4
(g8
S'\xc6I= d\xbaI>'
p330
tp331
Rp332
sg14
F-1.385939e-05
sg15
F-1.390731e-05
sg16
g4
(g8
S'Y\xd5\xadh~\x1f\xed\xbe'
p333
tp334
Rp335
ssI34000
(dp336
g3
g4
(g8
S'vbw\xdd=3]>'
p337
tp338
Rp339
sg14
F-0.01055242
sg15
F-0.01055252
sg16
g4
(g8
S'\xab\xcf\xb50\x88\x9c\x85\xbf'
p340
tp341
Rp342
ssI7000
(dp343
g3
g4
(g8
S'\xed\x90y\xfd\xbd\xfaP>'
p344
tp345
Rp346
sg14
F-0.002164213
sg15
F-0.00216427
sg16
g4
(g8
S'\xde\x04\x059\xc0\xbaa\xbf'
p347
tp348
Rp349
ssI28000
(dp350
g3
g4
(g8
S'&\xdf*\xd4l\xe5`>'
p351
tp352
Rp353
sg14
F-0.008688462
sg15
F-0.008688588
sg16
g4
(g8
S'\x7fq\xea\xbbH\xcb\x81\xbf'
p354
tp355
Rp356
ssI10000
(dp357
g3
g4
(g8
S'o\xa1\x00\x18j\xd9^>'
p358
tp359
Rp360
sg14
F-0.00309617
sg15
F-0.00309626
sg16
g4
(g8
S'\x02ABG?]i\xbf'
p361
tp362
Rp363
ssI100
(dp364
g3
g4
(g8
S'rL\x95\x0f\xf1\xab`>'
p365
tp366
Rp367
sg14
F-2.172799e-05
sg15
F-2.18493e-05
sg16
g4
(g8
S'\xac\xbf\x19\xb6\xa9\xd7\xf6\xbe'
p368
tp369
Rp370
ssI1000
(dp371
g3
g4
(g8
S'a#\x9c\xf9\xb3z\x82>'
p372
tp373
Rp374
sg14
F-0.0003009288
sg15
F-0.0003014967
sg16
g4
(g8
S'\x17<(\xcc\xb4\xb93\xbf'
p375
tp376
Rp377
ssI22000
(dp378
g3
g4
(g8
S'd_I\xea\x98\xecU>'
p379
tp380
Rp381
sg14
F-0.006823527
sg15
F-0.006823603
sg16
g4
(g8
S'\x81~2\xcb\x03\xf3{\xbf'
p382
tp383
Rp384
ssI500
(dp385
g3
g4
(g8
S'\x13.B\xc7\xdf\x81Q>'
p386
tp387
Rp388
sg14
F-0.0001458117
sg15
F-0.0001458912
sg16
g4
(g8
S'+<\xa2\x85\x1a\x1e#\xbf'
p389
tp390
Rp391
sssI3
(dp392
I0
(dp393
g3
g4
(g8
S';\xf9\xfd\xb3\xb1\n[>'
p394
tp395
Rp396
sg14
F1.10764e-05
sg15
F1.097264e-05
sg16
g4
(g8
S'UN2A\x85(\xe7>'
p397
tp398
Rp399
ssI16000
(dp400
g3
g4
(g8
S'x\xedFx\xc3\xbb^>'
p401
tp402
Rp403
sg14
F-0.004962249
sg15
F-0.004962339
sg16
g4
(g8
S'\xc4\xd3+\xdfYSt\xbf'
p404
tp405
Rp406
ssI900
(dp407
g3
g4
(g8
S"'\xfdV\xc2\xd5Gx>"
p408
tp409
Rp410
sg14
F-0.0002684637
sg15
F-0.0002688518
sg16
g4
(g8
S'\x81O:\x08\x0b\x991\xbf'
p411
tp412
Rp413
ssI37000
(dp414
g3
g4
(g8
S'hK\x17\x05\x8e\x8cm>'
p415
tp416
Rp417
sg14
F-0.01148742
sg15
F-0.0114876
sg16
g4
(g8
S'\xa9m\xc8\xe1\xc1\x86\x87\xbf'
p418
tp419
Rp420
ssI400
(dp421
g3
g4
(g8
S'\xf0\x84[\xcaSsT>'
p422
tp423
Rp424
sg14
F-0.0001130963
sg15
F-0.0001131616
sg16
g4
(g8
S'\xf9\xdfA\xcfx\xa7\x1d\xbf'
p425
tp426
Rp427
ssI600
(dp428
g3
g4
(g8
S'HL\xb9%*\xb9^>'
p429
tp430
Rp431
sg14
F-0.0001755097
sg15
F-0.0001756137
sg16
g4
(g8
S"w\xb0\xa9\xd7\xc8\x02'\xbf"
p432
tp433
Rp434
ssI31000
(dp435
g3
g4
(g8
S'I\x98\xa3V\xc2\xdag>'
p436
tp437
Rp438
sg14
F-0.009622761
sg15
F-0.009622904
sg16
g4
(g8
S'\xaaEe\xc5!\xb5\x83\xbf'
p439
tp440
Rp441
ssI25
(dp442
g3
g4
(g8
S'4\xbduX.R\\>'
p443
tp444
Rp445
sg14
F3.597406e-06
sg15
F3.49814e-06
sg16
g4
(g8
S'\xb2\x95\xf5\xb61\xbf\xcd>'
p446
tp447
Rp448
ssI800
(dp449
g3
g4
(g8
S'\x17\x12n\xa6P\xa2}>'
p450
tp451
Rp452
sg14
F-0.000237231
sg15
F-0.0002376979
sg16
g4
(g8
S'uan\xa6\x1a\x1a/\xbf'
p453
tp454
Rp455
ssI25000
(dp456
g3
g4
(g8
S'\xa1\xc2\xb5\xd3\xbf\xc2S>'
p457
tp458
Rp459
sg14
F-0.007758746
sg15
F-0.007758802
sg16
g4
(g8
S'\xd0\x03#\x17\xaa\xc7\x7f\xbf'
p460
tp461
Rp462
ssI300
(dp463
g3
g4
(g8
S'\x0eE:\xeb,\x14H>'
p464
tp465
Rp466
sg14
F-8.182973e-05
sg15
F-8.187393e-05
sg16
g4
(g8
S',\xe2\n\x94\xd9t\x15\xbf'
p467
tp468
Rp469
ssI13000
(dp470
g3
g4
(g8
S'\\x\x87f8/S>'
p471
tp472
Rp473
sg14
F-0.004029455
sg15
F-0.004029515
sg16
g4
(g8
S'\xac?\x05)8\x81p\xbf'
p474
tp475
Rp476
ssI50
(dp477
g3
g4
(g8
S'-\x14\xd2\x8e~\xf9U>'
p478
tp479
Rp480
sg14
F-4.281124e-06
sg15
F-4.345638e-06
sg16
g4
(g8
S'\x03\x1af\x89,\x17\xd2\xbe'
p481
tp482
Rp483
ssI19000
(dp484
g3
g4
(g8
S'v3\xb5G\xbc\x9dX>'
p485
tp486
Rp487
sg14
F-0.005894549
sg15
F-0.005894626
sg16
g4
(g8
S'E\xbe}\xa6\xec$x\xbf'
p488
tp489
Rp490
ssI700
(dp491
g3
g4
(g8
S'\xc2`r\xfe)\xd4i>'
p492
tp493
Rp494
sg14
F-0.0002061065
sg15
F-0.000206311
sg16
g4
(g8
S'_.\xe6\xe0K\t+\xbf'
p495
tp496
Rp497
ssI40000
(dp498
g3
g4
(g8
S'\xf1\xf9K$P\xf9d>'
p499
tp500
Rp501
sg14
F-0.01241952
sg15
F-0.01241964
sg16
g4
(g8
S'\xa2\xf4&7mo\x89\xbf'
p502
tp503
Rp504
ssI4000
(dp505
g3
g4
(g8
S'\x08\xd7D3\xc07\x81>'
p506
tp507
Rp508
sg14
F-0.001232442
sg15
F-0.001232978
sg16
g4
(g8
S'@7\x89\xba{1T\xbf'
p509
tp510
Rp511
ssI200
(dp512
g3
g4
(g8
S'Mz\x07Lt\x1dI>'
p513
tp514
Rp515
sg14
F-5.075516e-05
sg15
F-5.079571e-05
sg16
g4
(g8
S'\xee\x85\x97\x18J\x9e\n\xbf'
p516
tp517
Rp518
ssI75
(dp519
g3
g4
(g8
S'\x94\xfa\xb6\xf2$\x86b>'
p520
tp521
Rp522
sg14
F-1.215729e-05
sg15
F-1.228233e-05
sg16
g4
(g8
S'\x9c/K#\xe8\x9a\xe9\xbe'
p523
tp524
Rp525
ssI34000
(dp526
g3
g4
(g8
S'\x17\xe2\xf0{A `>'
p527
tp528
Rp529
sg14
F-0.01055504
sg15
F-0.01055515
sg16
g4
(g8
S'\x8a\x04\xfb\xfc\xe9\x9d\x85\xbf'
p530
tp531
Rp532
ssI7000
(dp533
g3
g4
(g8
S'\x1c\x08e\xfc\xf0xT>'
p534
tp535
Rp536
sg14
F-0.002164672
sg15
F-0.002164731
sg16
g4
(g8
S'I\x10\x9f\x92\xb5\xbba\xbf'
p537
tp538
Rp539
ssI28000
(dp540
g3
g4
(g8
S'tI\x9d\xa8\x95MV>'
p541
tp542
Rp543
sg14
F-0.008690623
sg15
F-0.008690689
sg16
g4
(g8
S'\x1f\n)oh\xcc\x81\xbf'
p544
tp545
Rp546
ssI10000
(dp547
g3
g4
(g8
S'\xc5\xef\x10p\rzV>'
p548
tp549
Rp550
sg14
F-0.003097093
sg15
F-0.003097188
sg16
g4
(g8
S"\xfe\x0f'\xa2/_i\xbf"
p551
tp552
Rp553
ssI100
(dp554
g3
g4
(g8
S'\xfd\xb0\x9b7"\xf5X>'
p555
tp556
Rp557
sg14
F-2.008318e-05
sg15
F-2.016827e-05
sg16
g4
(g8
S'\xbb\xc3 \xd4v\x1b\xf5\xbe'
p558
tp559
Rp560
ssI1000
(dp561
g3
g4
(g8
S'\x05h\xea\x07\x1bP~>'
p562
tp563
Rp564
sg14
F-0.0002995518
sg15
F-0.0003000411
sg16
g4
(g8
S'\x1ad\xfb\xd1\xe6\xa23\xbf'
p565
tp566
Rp567
ssI22000
(dp568
g3
g4
(g8
S'\xa2Z\xcf}\xc3rQ>'
p569
tp570
Rp571
sg14
F-0.006826581
sg15
F-0.006826635
sg16
g4
(g8
S'\xae\xfa\xe9\xe68\xf6{\xbf'
p572
tp573
Rp574
ssI500
(dp575
g3
g4
(g8
S'\x88\xf5.\xe3"\xe8W>'
p576
tp577
Rp578
sg14
F-0.0001441433
sg15
F-0.0001442283
sg16
g4
(g8
S'\xbe\xca\xa6\xa6;\xe6"\xbf'
p579
tp580
Rp581
sssI4
(dp582
I0
(dp583
g3
g4
(g8
S'\xd6\x0f\xbd\x18\xc2\xa9f>'
p584
tp585
Rp586
sg14
F9.897894e-06
sg15
F9.776826e-06
sg16
g4
(g8
S'\xd3\xd1\xe3\xae\x9d\xa7\xe4>'
p587
tp588
Rp589
ssI16000
(dp590
g3
g4
(g8
S'\xc8n\xdc\xc3\xe3\xbdW>'
p591
tp592
Rp593
sg14
F-0.004954517
sg15
F-0.004954593
sg16
g4
(g8
S'[\xb9\xb4$;Kt\xbf'
p594
tp595
Rp596
ssI900
(dp597
g3
g4
(g8
S"\xa0\xb2\xa8P('\x82>"
p598
tp599
Rp600
sg14
F-0.0002689336
sg15
F-0.0002695207
sg16
g4
(g8
S'\x0e\xa0\x85\x04v\xa11\xbf'
p601
tp602
Rp603
ssI37000
(dp604
g3
g4
(g8
S'I\xddd#\x12\x90v>'
p605
tp606
Rp607
sg14
F-0.01147448
sg15
F-0.01147476
sg16
g4
(g8
S'TW\xd5\xff\xf9\x7f\x87\xbf'
p608
tp609
Rp610
ssI400
(dp611
g3
g4
(g8
S'\x1d\xe4t\x01\xbe\x94Q>'
p612
tp613
Rp614
sg14
F-0.0001138978
sg15
F-0.0001139585
sg16
g4
(g8
S'$ zU\n\xde\x1d\xbf'
p615
tp616
Rp617
ssI600
(dp618
g3
g4
(g8
S'71P\xa6\xfa\xa9S>'
p619
tp620
Rp621
sg14
F-0.0001761032
sg15
F-0.0001761714
sg16
g4
(g8
S"ymK\xf6\xb3\x15'\xbf"
p622
tp623
Rp624
ssI31000
(dp625
g3
g4
(g8
S'T\x14)\x0e\x8a\x1f]>'
p626
tp627
Rp628
sg14
F-0.009612109
sg15
F-0.009612237
sg16
g4
(g8
S'\x8a_\x1b.\x8b\xaf\x83\xbf'
p629
tp630
Rp631
ssI25
(dp632
g3
g4
(g8
S'\xf8\xa3>\xaae3\\>'
p633
tp634
Rp635
sg14
F2.129569e-06
sg15
F2.025065e-06
sg16
g4
(g8
S'\xb4\x14\x88\x04zd\xc1>'
p636
tp637
Rp638
ssI800
(dp639
g3
g4
(g8
S'\x83 \x8b\x18+\x91{>'
p640
tp641
Rp642
sg14
F-0.0002377201
sg15
F-0.0002381511
sg16
g4
(g8
S'O\xce\n\xd9]*/\xbf'
p643
tp644
Rp645
ssI25000
(dp646
g3
g4
(g8
S'\xe0@\xa1\x10\xba\xa1U>'
p647
tp648
Rp649
sg14
F-0.007749081
sg15
F-0.007749159
sg16
g4
(g8
S'\x7fc?\xf3\x88\xbd\x7f\xbf'
p650
tp651
Rp652
ssI300
(dp653
g3
g4
(g8
S'P cm\xfd\xd1Z>'
p654
tp655
Rp656
sg14
F-8.268952e-05
sg15
F-8.277904e-05
sg16
g4
(g8
S'\xa4A\x08\x97:\xb0\x15\xbf'
p657
tp658
Rp659
ssI13000
(dp660
g3
g4
(g8
S'\xfd\x01=\x9c\x8a\xceR>'
p661
tp662
Rp663
sg14
F-0.004023881
sg15
F-0.004023941
sg16
g4
(g8
S'7/\xf2\x17^{p\xbf'
p664
tp665
Rp666
ssI50
(dp667
g3
g4
(g8
S'\x93Z)\xe2$?W>'
p668
tp669
Rp670
sg14
F-5.428311e-06
sg15
F-5.513136e-06
sg16
g4
(g8
S':\xadx\x97\xac\xf4\xd6\xbe'
p671
tp672
Rp673
ssI19000
(dp674
g3
g4
(g8
S'\xb5\x85\xe1NU\x88V>'
p675
tp676
Rp677
sg14
F-0.005885655
sg15
F-0.005885733
sg16
g4
(g8
S'\x9e`e\x0f\x99\x1bx\xbf'
p678
tp679
Rp680
ssI700
(dp681
g3
g4
(g8
S'7\xd0\x13\xfb\xf0\xd1p>'
p682
tp683
Rp684
sg14
F-0.000206546
sg15
F-0.0002068192
sg16
g4
(g8
S'q\xdf\xcbV\x16\x1a+\xbf'
p685
tp686
Rp687
ssI40000
(dp688
g3
g4
(g8
S'\x1bC\x89~\xf0Xv>'
p689
tp690
Rp691
sg14
F-0.01240636
sg15
F-0.01240665
sg16
g4
(g8
S'\xe0\x9a\xb5\xc0\x90h\x89\xbf'
p692
tp693
Rp694
ssI4000
(dp695
g3
g4
(g8
S'\x12\xe9\xfc-\x10Tz>'
p696
tp697
Rp698
sg14
F-0.001230657
sg15
F-0.001231089
sg16
g4
(g8
S'\x15\x03r\xec\x10*T\xbf'
p699
tp700
Rp701
ssI200
(dp702
g3
g4
(g8
S' T\xef\x14\nm^>'
p703
tp704
Rp705
sg14
F-5.197912e-05
sg15
F-5.2084e-05
sg16
g4
(g8
S'\x95P\xadV)H\x0b\xbf'
p706
tp707
Rp708
ssI75
(dp709
g3
g4
(g8
S'\xd9S\x02\xfa\xb9\x1cT>'
p710
tp711
Rp712
sg14
F-1.31589e-05
sg15
F-1.322851e-05
sg16
g4
(g8
S'\xb6`\x9e$D\xae\xeb\xbe'
p713
tp714
Rp715
ssI34000
(dp716
g3
g4
(g8
S'\tbW\x18A\x0fb>'
p717
tp718
Rp719
sg14
F-0.01054298
sg15
F-0.01054311
sg16
g4
(g8
S'\xd9~\x0f\xe8\x94\x97\x85\xbf'
p720
tp721
Rp722
ssI7000
(dp723
g3
g4
(g8
S'F\x7fE\x9c\x96\xbfT>'
p724
tp725
Rp726
sg14
F-0.002161374
sg15
F-0.00216144
sg16
g4
(g8
S'$k\xb3A\xca\xb4a\xbf'
p727
tp728
Rp729
ssI28000
(dp730
g3
g4
(g8
S'\x9d\xbe#B\xf7\xa7`>'
p731
tp732
Rp733
sg14
F-0.00868074
sg15
F-0.008680845
sg16
g4
(g8
S';R\xee\xda:\xc7\x81\xbf'
p734
tp735
Rp736
ssI10000
(dp737
g3
g4
(g8
S"' \xf4\xf6y\x84P>"
p738
tp739
Rp740
sg14
F-0.003092757
sg15
F-0.003092819
sg16
g4
(g8
S'yy\x01\x88\x10Vi\xbf'
p741
tp742
Rp743
ssI100
(dp744
g3
g4
(g8
S'1\xc7\xa4\x81}\xfeT>'
p745
tp746
Rp747
sg14
F-2.105771e-05
sg15
F-2.113043e-05
sg16
g4
(g8
S'\x8e\x82\x91"\x89\x1c\xf6\xbe'
p748
tp749
Rp750
ssI1000
(dp751
g3
g4
(g8
S'\xcd\xa5\x00-\xb3\x91y>'
p752
tp753
Rp754
sg14
F-0.0003000386
sg15
F-0.000300444
sg16
g4
(g8
S'\x17\x91\xaa\x01\xb3\xaa3\xbf'
p755
tp756
Rp757
ssI22000
(dp758
g3
g4
(g8
S'\xa80#v\xe2\x92R>'
p759
tp760
Rp761
sg14
F-0.006817231
sg15
F-0.006817287
sg16
g4
(g8
S"\x99&\xe0'k\xec{\xbf"
p762
tp763
Rp764
ssI500
(dp765
g3
g4
(g8
S'\xe9\xe4Z)\x17\xccX>'
p766
tp767
Rp768
sg14
F-0.0001450195
sg15
F-0.0001450955
sg16
g4
(g8
S'I\x8c\xbeZ9\x03#\xbf'
p769
tp770
Rp771
sssI5
(dp772
I0
(dp773
g3
g4
(g8
S'%\xb2)\xa1\xc1\x19`>'
p774
tp775
Rp776
sg14
F1.776869e-05
sg15
F1.766083e-05
sg16
g4
(g8
S'J\x07p\x95\x7f\x92\xf2>'
p777
tp778
Rp779
ssI16000
(dp780
g3
g4
(g8
S'q\xce\x1c\x07?qO>'
p781
tp782
Rp783
sg14
F-0.004956178
sg15
F-0.004956222
sg16
g4
(g8
S'\xc3\x94\x86s\xf4Lt\xbf'
p784
tp785
Rp786
ssI900
(dp787
g3
g4
(g8
S'\xfby4\xf2J\xc7u>'
p788
tp789
Rp790
sg14
F-0.0002615204
sg15
F-0.0002618854
sg16
g4
(g8
S'3\x8c\xaa\x0e\xe4$1\xbf'
p791
tp792
Rp793
ssI37000
(dp794
g3
g4
(g8
S']\xba\x99\xc9\x19\x9dn>'
p795
tp796
Rp797
sg14
F-0.01147968
sg15
F-0.01147987
sg16
g4
(g8
S'\x9c\x7fP \xb3\x82\x87\xbf'
p798
tp799
Rp800
ssI400
(dp801
g3
g4
(g8
S'T4\x1e;\t7_>'
p802
tp803
Rp804
sg14
F-0.0001061943
sg15
F-0.0001063203
sg16
g4
(g8
S'\xd9\xd4\\\xeb-\xdb\x1b\xbf'
p805
tp806
Rp807
ssI600
(dp808
g3
g4
(g8
S'\xc8\n\xd5\xc2\x91\x08\\>'
p809
tp810
Rp811
sg14
F-0.0001687045
sg15
F-0.0001687921
sg16
g4
(g8
S'\xf7\xd0h\x04U\x1e&\xbf'
p812
tp813
Rp814
ssI31000
(dp815
g3
g4
(g8
S'\x1f\xeb_]c\xb3d>'
p816
tp817
Rp818
sg14
F-0.0096165
sg15
F-0.00961665
sg16
g4
(g8
S'\xd7\x9f\x82\x8e\xdc\xb1\x83\xbf'
p819
tp820
Rp821
ssI25
(dp822
g3
g4
(g8
S'\xcf\xb6w\xb4\x7f\x8aT>'
p823
tp824
Rp825
sg14
F9.889809e-06
sg15
F9.828559e-06
sg16
g4
(g8
S'<\xeb\xecQ\xd1\xac\xe4>'
p826
tp827
Rp828
ssI800
(dp829
g3
g4
(g8
S'\xb3+\x15\x9f*\x8dt>'
p830
tp831
Rp832
sg14
F-0.000230302
sg15
F-0.0002306359
sg16
g4
(g8
S'\xdf"5\xd1\x981.\xbf'
p833
tp834
Rp835
ssI25000
(dp836
g3
g4
(g8
S'\xe8\xe1\xd2\xcf$\xd5Q>'
p837
tp838
Rp839
sg14
F-0.007752549
sg15
F-0.007752608
sg16
g4
(g8
S'1\x9bb\x05)\xc1\x7f\xbf'
p840
tp841
Rp842
ssI300
(dp843
g3
g4
(g8
S'v\x92\x12\x8cH0Q>'
p844
tp845
Rp846
sg14
F-7.492795e-05
sg15
F-7.498867e-05
sg16
g4
(g8
S'\xa2\xff\xb3m\xfe\xa5\x13\xbf'
p847
tp848
Rp849
ssI13000
(dp850
g3
g4
(g8
S'\xd1\xfc6\xb4@\xd4U>'
p851
tp852
Rp853
sg14
F-0.004023803
sg15
F-0.00402388
sg16
g4
(g8
S'\x17wQ\xe5L{p\xbf'
p854
tp855
Rp856
ssI50
(dp857
g3
g4
(g8
S'\xf5TX\xfb\x98\xa5V>'
p858
tp859
Rp860
sg14
F2.351753e-06
sg15
F2.270786e-06
sg16
g4
(g8
S'\x80\xf6\xe7Zxh\xc3>'
p861
tp862
Rp863
ssI19000
(dp864
g3
g4
(g8
S'\xbf\xda\xb9\xbfn\x8eN>'
p865
tp866
Rp867
sg14
F-0.005887931
sg15
F-0.005887982
sg16
g4
(g8
S'\xc2\x18\xef\x13\xf6\x1dx\xbf'
p868
tp869
Rp870
ssI700
(dp871
g3
g4
(g8
S'8X\xd7\xc0\xd1\x13R>'
p872
tp873
Rp874
sg14
F-0.0001993457
sg15
F-0.000199406
sg16
g4
(g8
S'\xb5\x0fZ\xe0#"*\xbf'
p875
tp876
Rp877
ssI40000
(dp878
g3
g4
(g8
S'\x82\xde\xd4\x86\xb2jt>'
p879
tp880
Rp881
sg14
F-0.01241168
sg15
F-0.01241196
sg16
g4
(g8
S'\xac\xfcC\x13Zk\x89\xbf'
p882
tp883
Rp884
ssI4000
(dp885
g3
g4
(g8
S'K\xe7@\xc6\x83\xdb\x83>'
p886
tp887
Rp888
sg14
F-0.001225463
sg15
F-0.001226099
sg16
g4
(g8
S'\xc2\xad\x08\xa7U\x14T\xbf'
p889
tp890
Rp891
ssI200
(dp892
g3
g4
(g8
S'F:m4(\x8cP>'
p893
tp894
Rp895
sg14
F-4.394976e-05
sg15
F-4.400092e-05
sg16
g4
(g8
S'\x17c$C\x87\x0e\x07\xbf'
p896
tp897
Rp898
ssI75
(dp899
g3
g4
(g8
S'\xec(\xd9!\xa4\xb0V>'
p900
tp901
Rp902
sg14
F-5.529741e-06
sg15
F-5.600572e-06
sg16
g4
(g8
S'jZ2M\xd2V\xd7\xbe'
p903
tp904
Rp905
ssI34000
(dp906
g3
g4
(g8
S'\x03?\xa1\xe3\xa9\xdej>'
p907
tp908
Rp909
sg14
F-0.01054773
sg15
F-0.0105479
sg16
g4
(g8
S'g\x125\xcf\x17\x9a\x85\xbf'
p910
tp911
Rp912
ssI7000
(dp913
g3
g4
(g8
S'\xc6\x0c\xde)\x1dNV>'
p914
tp915
Rp916
sg14
F-0.002157919
sg15
F-0.002158001
sg16
g4
(g8
S'\x90\x92\x81\xbc\x90\xada\xbf'
p917
tp918
Rp919
ssI28000
(dp920
g3
g4
(g8
S'\xfc)\xfai\x13\xd9\\>'
p921
tp922
Rp923
sg14
F-0.008684426
sg15
F-0.008684524
sg16
g4
(g8
S'E\x00\xea\xe3+\xc9\x81\xbf'
p924
tp925
Rp926
ssI10000
(dp927
g3
g4
(g8
S'\x0e\xb3\xadU\xfa\xa6\\>'
p928
tp929
Rp930
sg14
F-0.003090777
sg15
F-0.00309087
sg16
g4
(g8
S'5*\xaa \xf7Qi\xbf'
p931
tp932
Rp933
ssI100
(dp934
g3
g4
(g8
S'Dq\x90G^zP>'
p935
tp936
Rp937
sg14
F-1.325139e-05
sg15
F-1.330243e-05
sg16
g4
(g8
S'\x84\x86\xf8\xe0\xf9\xdb\xeb\xbe'
p938
tp939
Rp940
ssI1000
(dp941
g3
g4
(g8
S'\xa6\xe5\\t\t\xa5\x81>'
p942
tp943
Rp944
sg14
F-0.0002927685
sg15
F-0.0002933092
sg16
g4
(g8
S'\x94]}P\xbd03\xbf'
p945
tp946
Rp947
ssI22000
(dp948
g3
g4
(g8
S'\xac\xa9Mk\xf5\x14W>'
p949
tp950
Rp951
sg14
F-0.006820374
sg15
F-0.006820461
sg16
g4
(g8
S'\xfa\x82\xa7+\xb7\xef{\xbf'
p952
tp953
Rp954
ssI500
(dp955
g3
g4
(g8
S'\xcdj\x9d\x126I_>'
p956
tp957
Rp958
sg14
F-0.0001374498
sg15
F-0.0001375551
sg16
g4
(g8
S'5Wl\x8e\xcc\x05"\xbf'
p959
tp960
Rp961
sssI6
(dp962
I0
(dp963
g3
g4
(g8
S'x\xa2\x02v\xb0\x9ch>'
p964
tp965
Rp966
sg14
F1.142556e-05
sg15
F1.127002e-05
sg16
g4
(g8
S'\x1b\x07""\x16\xca\xe7>'
p967
tp968
Rp969
ssI16000
(dp970
g3
g4
(g8
S'\xb23\xf8@\xe6aS>'
p971
tp972
Rp973
sg14
F-0.004960327
sg15
F-0.004960407
sg16
g4
(g8
S'\xf0w\xbd1PQt\xbf'
p974
tp975
Rp976
ssI900
(dp977
g3
g4
(g8
S'\xfcP~ \x8cV~>'
p978
tp979
Rp980
sg14
F-0.0002678701
sg15
F-0.0002683549
sg16
g4
(g8
S'\xcb\xf6\xde\x175\x8f1\xbf'
p981
tp982
Rp983
ssI37000
(dp984
g3
g4
(g8
S'[\xb7\x85-|\xb2T>'
p985
tp986
Rp987
sg14
F-0.01148771
sg15
F-0.01148778
sg16
g4
(g8
S't\xfe?\xe2\xe3\x86\x87\xbf'
p988
tp989
Rp990
ssI400
(dp991
g3
g4
(g8
S'\\\x0fC\xa7KzL>'
p992
tp993
Rp994
sg14
F-0.0001126436
sg15
F-0.0001126996
sg16
g4
(g8
S'\x89\xf4N\tp\x88\x1d\xbf'
p995
tp996
Rp997
ssI600
(dp998
g3
g4
(g8
S'\x13\x11\x99|\x9f\xc0V>'
p999
tp1000
Rp1001
sg14
F-0.0001749584
sg15
F-0.0001750271
sg16
g4
(g8
S'}\x1a\xe5\x9a\xc1\xef&\xbf'
p1002
tp1003
Rp1004
ssI31000
(dp1005
g3
g4
(g8
S'\x1e\x1e\x91\xd51\x19R>'
p1006
tp1007
Rp1008
sg14
F-0.009622832
sg15
F-0.009622891
sg16
g4
(g8
S'\xc9Nj\xba&\xb5\x83\xbf'
p1009
tp1010
Rp1011
ssI25
(dp1012
g3
g4
(g8
S'\x98\x88\xae`\xd3\x98Q>'
p1013
tp1014
Rp1015
sg14
F3.619623e-06
sg15
F3.56027e-06
sg16
g4
(g8
S'\xfe\xb8\xf9\xab\x81\x11\xce>'
p1016
tp1017
Rp1018
ssI800
(dp1019
g3
g4
(g8
S'\xc91`\xd3[\xe1}>'
p1020
tp1021
Rp1022
sg14
F-0.0002368253
sg15
F-0.0002372856
sg16
g4
(g8
S'\x1d\xa7:\x898\x0c/\xbf'
p1023
tp1024
Rp1025
ssI25000
(dp1026
g3
g4
(g8
S't\x97\x962\xe6\x11X>'
p1027
tp1028
Rp1029
sg14
F-0.007758172
sg15
F-0.00775826
sg16
g4
(g8
S'\xe2U\xad\xc3\x12\xc7\x7f\xbf'
p1030
tp1031
Rp1032
ssI300
(dp1033
g3
g4
(g8
S'w\xd0\xa7\x83\xc5\xbbL>'
p1034
tp1035
Rp1036
sg14
F-8.150586e-05
sg15
F-8.155113e-05
sg16
g4
(g8
S'm\n\x1e\xb4\x8e_\x15\xbf'
p1037
tp1038
Rp1039
ssI13000
(dp1040
g3
g4
(g8
S'\xbd\xfd\x1e\x99\x89\xecU>'
p1041
tp1042
Rp1043
sg14
F-0.004028759
sg15
F-0.004028837
sg16
g4
(g8
S'\xc6\xae\xaac\x80\x80p\xbf'
p1044
tp1045
Rp1046
ssI50
(dp1047
g3
g4
(g8
S'\xa7\x86\xa8>*\xa2Y>'
p1048
tp1049
Rp1050
sg14
F-3.88511e-06
sg15
F-3.95399e-06
sg16
g4
(g8
S'\x13N\t\x1a\x8bt\xd0\xbe'
p1051
tp1052
Rp1053
ssI19000
(dp1054
g3
g4
(g8
S'AN\xe225\xd6R>'
p1055
tp1056
Rp1057
sg14
F-0.005892029
sg15
F-0.005892088
sg16
g4
(g8
S'\x8f\xfb\x82\x90F"x\xbf'
p1058
tp1059
Rp1060
ssI700
(dp1061
g3
g4
(g8
S'M\x7f\xf5\xbe.s\x7f>'
p1062
tp1063
Rp1064
sg14
F-0.0002061579
sg15
F-0.0002066624
sg16
g4
(g8
S'a\xfe\x92\x9d\xfd\x07+\xbf'
p1065
tp1066
Rp1067
ssI40000
(dp1068
g3
g4
(g8
S'\x16T\xdf\xc3%?d>'
p1069
tp1070
Rp1071
sg14
F-0.01242046
sg15
F-0.01242059
sg16
g4
(g8
S'$\x93\x87\x14\xedo\x89\xbf'
p1072
tp1073
Rp1074
ssI4000
(dp1075
g3
g4
(g8
S'\xc8E\x1f\xa6\xfcgv>'
p1076
tp1077
Rp1078
sg14
F-0.00123153
sg15
F-0.001231903
sg16
g4
(g8
S"t\xaf\xa7'\xb9-T\xbf"
p1079
tp1080
Rp1081
ssI200
(dp1082
g3
g4
(g8
S'\x94\x15\xdb\r\xf1YP>'
p1083
tp1084
Rp1085
sg14
F-5.090911e-05
sg15
F-5.095354e-05
sg16
g4
(g8
S'Q)\xe8t\x04\xb4\n\xbf'
p1086
tp1087
Rp1088
ssI75
(dp1089
g3
g4
(g8
S'\xd7yf\xf9&\x11E>'
p1090
tp1091
Rp1092
sg14
F-1.177716e-05
sg15
F-1.181397e-05
sg16
g4
(g8
S'+\xaa\xa8\xc7\xf6\xbb\xe8\xbe'
p1093
tp1094
Rp1095
ssI34000
(dp1096
g3
g4
(g8
S'\xd0\xaf\xa4\xfc\x8e;X>'
p1097
tp1098
Rp1099
sg14
F-0.01055489
sg15
F-0.01055497
sg16
g4
(g8
S'y\x14\x03\xfe\xd2\x9d\x85\xbf'
p1100
tp1101
Rp1102
ssI7000
(dp1103
g3
g4
(g8
S'\x82X\xaa\x19\x02\x9f[>'
p1104
tp1105
Rp1106
sg14
F-0.002164047
sg15
F-0.002164142
sg16
g4
(g8
S'BMg\x06u\xbaa\xbf'
p1107
tp1108
Rp1109
ssI28000
(dp1110
g3
g4
(g8
S'K\x1b-y\xc5\x0b[>'
p1111
tp1112
Rp1113
sg14
F-0.008690368
sg15
F-0.008690447
sg16
g4
(g8
S'6!O\x83F\xcc\x81\xbf'
p1114
tp1115
Rp1116
ssI10000
(dp1117
g3
g4
(g8
S'B\xaf%\xba\x84\x86Y>'
p1118
tp1119
Rp1120
sg14
F-0.003096225
sg15
F-0.003096311
sg16
g4
(g8
S'`\xa7(\xbfQ]i\xbf'
p1121
tp1122
Rp1123
ssI100
(dp1124
g3
g4
(g8
S'\xfb2\xe2-\x8f\xaeX>'
p1125
tp1126
Rp1127
sg14
F-1.972924e-05
sg15
F-1.980629e-05
sg16
g4
(g8
S'\xfc2\x89z\xe8\xba\xf4\xbe'
p1128
tp1129
Rp1130
ssI1000
(dp1131
g3
g4
(g8
S'\xaa\x02\xcfu\x19g{>'
p1132
tp1133
Rp1134
sg14
F-0.0002991222
sg15
F-0.0002995582
sg16
g4
(g8
S'CH\xe2}j\x9b3\xbf'
p1135
tp1136
Rp1137
ssI22000
(dp1138
g3
g4
(g8
S'\x0f;\x0eX\xcb\xa9S>'
p1139
tp1140
Rp1141
sg14
F-0.006825848
sg15
F-0.006825911
sg16
g4
(g8
S'J\xad=\x15s\xf5{\xbf'
p1142
tp1143
Rp1144
ssI500
(dp1145
g3
g4
(g8
S'\xf2<F\x01E\x7fX>'
p1146
tp1147
Rp1148
sg14
F-0.0001437971
sg15
F-0.0001438673
sg16
g4
(g8
S'\xb4R\xa3\x06S\xda"\xbf'
p1149
tp1150
Rp1151
sssI7
(dp1152
I0
(dp1153
g3
g4
(g8
S'\xcc\x17\xf4\xac\xd0``>'
p1154
tp1155
Rp1156
sg14
F1.453724e-05
sg15
F1.444284e-05
sg16
g4
(g8
S'y\xbe\x1d\xa2\xa9l\xee>'
p1157
tp1158
Rp1159
ssI16000
(dp1160
g3
g4
(g8
S'\xaf/\x93\xe0\xa4\x96X>'
p1161
tp1162
Rp1163
sg14
F-0.004959391
sg15
F-0.004959466
sg16
g4
(g8
S'\x8e\x83\xa1\xc7UPt\xbf'
p1164
tp1165
Rp1166
ssI900
(dp1167
g3
g4
(g8
S'\xaa\xfd\r1\x10\xe0a>'
p1168
tp1169
Rp1170
sg14
F-0.0002648958
sg15
F-0.0002650486
sg16
g4
(g8
S'\x7f\x00\xc3}\xd5]1\xbf'
p1171
tp1172
Rp1173
ssI37000
(dp1174
g3
g4
(g8
S"\x98\xa3\xea\x81'Fw>"
p1175
tp1176
Rp1177
sg14
F-0.0114809
sg15
F-0.01148118
sg16
g4
(g8
S'P{r\x96W\x83\x87\xbf'
p1178
tp1179
Rp1180
ssI400
(dp1181
g3
g4
(g8
S'\xb8d\xab\xe1\x12IY>'
p1182
tp1183
Rp1184
sg14
F-0.0001097041
sg15
F-0.0001097919
sg16
g4
(g8
S'Ut\x9d1\x93\xc5\x1c\xbf'
p1185
tp1186
Rp1187
ssI600
(dp1188
g3
g4
(g8
S'\xc6\x8a\xe0A\x18+U>'
p1189
tp1190
Rp1191
sg14
F-0.0001718414
sg15
F-0.0001719039
sg16
g4
(g8
S'n9a\xbf6\x87&\xbf'
p1192
tp1193
Rp1194
ssI31000
(dp1195
g3
g4
(g8
S'\x01eM\x10]}f>'
p1196
tp1197
Rp1198
sg14
F-0.009618538
sg15
F-0.009618685
sg16
g4
(g8
S'\xcbz\xdeK\xe9\xb2\x83\xbf'
p1199
tp1200
Rp1201
ssI25
(dp1202
g3
g4
(g8
S'\x8d\xdc\xee\xbd\xdc{T>'
p1203
tp1204
Rp1205
sg14
F6.723265e-06
sg15
F6.651301e-06
sg16
g4
(g8
S'\x91\x8c\xcfd\x00\x17\xdc>'
p1206
tp1207
Rp1208
ssI800
(dp1209
g3
g4
(g8
S'kC\x00\x83\xbakx>'
p1210
tp1211
Rp1212
sg14
F-0.000233433
sg15
F-0.0002338303
sg16
g4
(g8
S'\xaa\xa4\xfa\xba\xc5\xa3.\xbf'
p1213
tp1214
Rp1215
ssI25000
(dp1216
g3
g4
(g8
S'\xee\x90C\xc4L\xf3`>'
p1217
tp1218
Rp1219
sg14
F-0.007754644
sg15
F-0.00775476
sg16
g4
(g8
S'\x83y\x1c\x02_\xc3\x7f\xbf'
p1220
tp1221
Rp1222
ssI300
(dp1223
g3
g4
(g8
S'(#4\x8dE\xafT>'
p1224
tp1225
Rp1226
sg14
F-7.842123e-05
sg15
F-7.848646e-05
sg16
g4
(g8
S'\xaf\x9b\xb2\xb7\xf9\x90\x14\xbf'
p1227
tp1228
Rp1229
ssI13000
(dp1230
g3
g4
(g8
S'\x13J**\x04`Y>'
p1231
tp1232
Rp1233
sg14
F-0.004027017
sg15
F-0.004027117
sg16
g4
(g8
S'\x85\x14e5\xaf~p\xbf'
p1234
tp1235
Rp1236
ssI50
(dp1237
g3
g4
(g8
S'\xaf\x17\x8e\xab\xcf\xa9S>'
p1238
tp1239
Rp1240
sg14
F-7.866765e-07
sg15
F-8.507243e-07
sg16
g4
(g8
S'\xbf\xe5\xa5,H\x8a\xab\xbe'
p1241
tp1242
Rp1243
ssI19000
(dp1244
g3
g4
(g8
S'%\xd3u\x85\x14\xfdY>'
p1245
tp1246
Rp1247
sg14
F-0.005890856
sg15
F-0.005890931
sg16
g4
(g8
S'7\xdfG\xba\x0c!x\xbf'
p1248
tp1249
Rp1250
ssI700
(dp1251
g3
g4
(g8
S'\xa8\xd7\x06#\x9b\xddo>'
p1252
tp1253
Rp1254
sg14
F-0.0002028466
sg15
F-0.0002031104
sg16
g4
(g8
S'\x1dPv\xea$\x9d*\xbf'
p1255
tp1256
Rp1257
ssI40000
(dp1258
g3
g4
(g8
S'\xfd\x91h\xbc\xf2W{>'
p1259
tp1260
Rp1261
sg14
F-0.01241261
sg15
F-0.01241298
sg16
g4
(g8
S'\xaa]\x83&\xd8k\x89\xbf'
p1262
tp1263
Rp1264
ssI4000
(dp1265
g3
g4
(g8
S'Mv\xa2\x04\xe0Ur>'
p1266
tp1267
Rp1268
sg14
F-0.001229173
sg15
F-0.001229481
sg16
g4
(g8
S'\xd5\xd3dN\xe5#T\xbf'
p1269
tp1270
Rp1271
ssI200
(dp1272
g3
g4
(g8
S'\xfa\xb2\xec\x98\xa9\xbb[>'
p1273
tp1274
Rp1275
sg14
F-4.766282e-05
sg15
F-4.775701e-05
sg16
g4
(g8
S'\xba\xc1:\x83\xc8\x02\t\xbf'
p1276
tp1277
Rp1278
ssI75
(dp1279
g3
g4
(g8
S'`\x0f\xce\xcd\x1dlO>'
p1280
tp1281
Rp1282
sg14
F-8.641218e-06
sg15
F-8.689335e-06
sg16
g4
(g8
S'\n!\x8a\xa6\xfa*\xe2\xbe'
p1283
tp1284
Rp1285
ssI34000
(dp1286
g3
g4
(g8
S'\x1dmK\xc2\xfb\xfau>'
p1287
tp1288
Rp1289
sg14
F-0.01054947
sg15
F-0.01054975
sg16
g4
(g8
S'\x99=\xaf\xcb\x01\x9b\x85\xbf'
p1290
tp1291
Rp1292
ssI7000
(dp1293
g3
g4
(g8
S'\xdfa\x82\x14\xe5\xf7X>'
p1294
tp1295
Rp1296
sg14
F-0.002161989
sg15
F-0.002162088
sg16
g4
(g8
S'\xe4\xb3\xee\xbc\x1d\xb6a\xbf'
p1297
tp1298
Rp1299
ssI28000
(dp1300
g3
g4
(g8
S'p\xb1.\xf0c\xdc`>'
p1301
tp1302
Rp1303
sg14
F-0.008686448
sg15
F-0.008686558
sg16
g4
(g8
S'\xd6\x8b\xbd.8\xca\x81\xbf'
p1304
tp1305
Rp1306
ssI10000
(dp1307
g3
g4
(g8
S'\xfb$\xcc.2\x0e[>'
p1308
tp1309
Rp1310
sg14
F-0.003094466
sg15
F-0.003094554
sg16
g4
(g8
S'\xa0w\x01\xf3\xabYi\xbf'
p1311
tp1312
Rp1313
ssI100
(dp1314
g3
g4
(g8
S'\x14z\xcb/\xd2\x13P>'
p1315
tp1316
Rp1317
sg14
F-1.661316e-05
sg15
F-1.666718e-05
sg16
g4
(g8
S'\xd9\xdb\xbe\x9cuq\xf1\xbe'
p1318
tp1319
Rp1320
ssI1000
(dp1321
g3
g4
(g8
S'Iz\x81\xb3jwh>'
p1322
tp1323
Rp1324
sg14
F-0.0002960752
sg15
F-0.0002962788
sg16
g4
(g8
S'\xe2$S\x1c\x02h3\xbf'
p1325
tp1326
Rp1327
ssI22000
(dp1328
g3
g4
(g8
S'&E\x02\xd5\x8a-O>'
p1329
tp1330
Rp1331
sg14
F-0.006822707
sg15
F-0.006822755
sg16
g4
(g8
S'\xd3A\xf4g&\xf2{\xbf'
p1332
tp1333
Rp1334
ssI500
(dp1335
g3
g4
(g8
S'\x8c\xa9\x1b\x8fP\xb2[>'
p1336
tp1337
Rp1338
sg14
F-0.0001406676
sg15
F-0.0001407535
sg16
g4
(g8
S'\xd6\xe9\xf7\x94qq"\xbf'
p1339
tp1340
Rp1341
sssI8
(dp1342
I0
(dp1343
g3
g4
(g8
S'\xbay\xe9\x8deV^>'
p1344
tp1345
Rp1346
sg14
F1.328988e-05
sg15
F1.319059e-05
sg16
g4
(g8
S'\xa7)\xee\xf8\x03\xc2\xeb>'
p1347
tp1348
Rp1349
ssI16000
(dp1350
g3
g4
(g8
S'# \xc3\xbf\x1e\x92U>'
p1351
tp1352
Rp1353
sg14
F-0.00495502
sg15
F-0.004955095
sg16
g4
(g8
S'%\x7f\x1eJ\xc1Kt\xbf'
p1354
tp1355
Rp1356
ssI900
(dp1357
g3
g4
(g8
S'ZGo\x811\xbez>'
p1358
tp1359
Rp1360
sg14
F-0.0002656983
sg15
F-0.0002661152
sg16
g4
(g8
S'\x1em\x89\xc2~j1\xbf'
p1361
tp1362
Rp1363
ssI37000
(dp1364
g3
g4
(g8
S'1h\x81l\xd8kr>'
p1365
tp1366
Rp1367
sg14
F-0.01147719
sg15
F-0.01147741
sg16
g4
(g8
S'\x85\xe1\x0f~c\x81\x87\xbf'
p1368
tp1369
Rp1370
ssI400
(dp1371
g3
g4
(g8
S'\x04\x131\x18\xa8\x04X>'
p1372
tp1373
Rp1374
sg14
F-0.0001105113
sg15
F-0.0001106022
sg16
g4
(g8
S'\xd6"\x8a;\xd5\xfb\x1c\xbf'
p1375
tp1376
Rp1377
ssI600
(dp1378
g3
g4
(g8
S'9\xc3\x86\xb3\x00sP>'
p1379
tp1380
Rp1381
sg14
F-0.0001727869
sg15
F-0.000172844
sg16
g4
(g8
S'%\x89\x92\xb4\xaf\xa6&\xbf'
p1382
tp1383
Rp1384
ssI31000
(dp1385
g3
g4
(g8
S'\x8b\xd5\x85\x80\x9d\xa1d>'
p1386
tp1387
Rp1388
sg14
F-0.009613767
sg15
F-0.009613927
sg16
g4
(g8
S'\xd3\x80\xb2\x02k\xb0\x83\xbf'
p1389
tp1390
Rp1391
ssI25
(dp1392
g3
g4
(g8
S'\xd4\x7f\xc7\x07\x8c\x9fP>'
p1393
tp1394
Rp1395
sg14
F5.545331e-06
sg15
F5.488302e-06
sg16
g4
(g8
S'\x0bqM\x1fV(\xd7>'
p1396
tp1397
Rp1398
ssI800
(dp1399
g3
g4
(g8
S'\xca\xeaUEJ~\x80>'
p1400
tp1401
Rp1402
sg14
F-0.0002345242
sg15
F-0.0002350638
sg16
g4
(g8
S'u\x8a\nR\xa9\xc0.\xbf'
p1403
tp1404
Rp1405
ssI25000
(dp1406
g3
g4
(g8
S'\xc9\xb7\x14\t\xc15\\>'
p1407
tp1408
Rp1409
sg14
F-0.007749969
sg15
F-0.007750064
sg16
g4
(g8
S'\x12\xf5\xaf\xdcy\xbe\x7f\xbf'
p1410
tp1411
Rp1412
ssI300
(dp1413
g3
g4
(g8
S'\xb9w\xf26\xe2DX>'
p1414
tp1415
Rp1416
sg14
F-7.970635e-05
sg15
F-7.977439e-05
sg16
g4
(g8
S'4\x99\x1a\xfa\xfe\xe6\x14\xbf'
p1417
tp1418
Rp1419
ssI13000
(dp1420
g3
g4
(g8
S'\xd3\xe2l\x10\xd44V>'
p1421
tp1422
Rp1423
sg14
F-0.004023471
sg15
F-0.004023538
sg16
g4
(g8
S'\x05\xe4\xf7\xe5\xf2zp\xbf'
p1424
tp1425
Rp1426
ssI50
(dp1427
g3
g4
(g8
S']`\xe8s\x99\x02]>'
p1428
tp1429
Rp1430
sg14
F-2.254377e-06
sg15
F-2.351602e-06
sg16
g4
(g8
S'\xcb\xf3\x93}gA\xc3\xbe'
p1431
tp1432
Rp1433
ssI19000
(dp1434
g3
g4
(g8
S'\x88x\xdf\x0bL\x87a>'
p1435
tp1436
Rp1437
sg14
F-0.005886422
sg15
F-0.005886527
sg16
g4
(g8
S'\x06\x10W\xf4h\x1cx\xbf'
p1438
tp1439
Rp1440
ssI700
(dp1441
g3
g4
(g8
S'\x8a\xebDy\xf0\xdf\x80>'
p1442
tp1443
Rp1444
sg14
F-0.0002038566
sg15
F-0.0002043947
sg16
g4
(g8
S'\xad\x80`xC\xbb*\xbf'
p1445
tp1446
Rp1447
ssI40000
(dp1448
g3
g4
(g8
S'\xd9x\x01\xc1[]w>'
p1449
tp1450
Rp1451
sg14
F-0.0124094
sg15
F-0.01240972
sg16
g4
(g8
S'\xbc\xc3\xc0O)j\x89\xbf'
p1452
tp1453
Rp1454
ssI4000
(dp1455
g3
g4
(g8
S'\xc5.7\x9c\x8b\xfe`>'
p1456
tp1457
Rp1458
sg14
F-0.001228217
sg15
F-0.001228342
sg16
g4
(g8
S'\xd5\xe9\x1a\x0f\xb1\x1fT\xbf'
p1459
tp1460
Rp1461
ssI200
(dp1462
g3
g4
(g8
S'jK\xaa\xf9\x84\x06V>'
p1463
tp1464
Rp1465
sg14
F-4.871108e-05
sg15
F-4.879271e-05
sg16
g4
(g8
S'\xbe?\xc9\x10\x0c\x8f\t\xbf'
p1466
tp1467
Rp1468
ssI75
(dp1469
g3
g4
(g8
S'\x8b\xa5\xff\xe3\xad\xb0Z>'
p1470
tp1471
Rp1472
sg14
F-9.713111e-06
sg15
F-9.821555e-06
sg16
g4
(g8
S'\x7f\xc6T\xc4c\x82\xe4\xbe'
p1473
tp1474
Rp1475
ssI34000
(dp1476
g3
g4
(g8
S']\xd7\x85\xeb\xfb\xf1p>'
p1477
tp1478
Rp1479
sg14
F-0.01054507
sg15
F-0.01054529
sg16
g4
(g8
S'B\x80\xfe\n\xb4\x98\x85\xbf'
p1480
tp1481
Rp1482
ssI7000
(dp1483
g3
g4
(g8
S'\xa0\r\xaf\xb9\x0bGT>'
p1484
tp1485
Rp1486
sg14
F-0.002159788
sg15
F-0.002159855
sg16
g4
(g8
S'B\x03\xb5\x00{\xb1a\xbf'
p1487
tp1488
Rp1489
ssI28000
(dp1490
g3
g4
(g8
S'S\xb8\x95\x8c\xd2\x9ci>'
p1491
tp1492
Rp1493
sg14
F-0.008681814
sg15
F-0.008681976
sg16
g4
(g8
S'UkF\xe6\xcf\xc7\x81\xbf'
p1494
tp1495
Rp1496
ssI10000
(dp1497
g3
g4
(g8
S'\xb0\x92\\M\x1f\xbeR>'
p1498
tp1499
Rp1500
sg14
F-0.003091326
sg15
F-0.003091389
sg16
g4
(g8
S'\x7f\x8af\x8b\x0bSi\xbf'
p1501
tp1502
Rp1503
ssI100
(dp1504
g3
g4
(g8
S'\xe7\xdb\x02a\xfdKX>'
p1505
tp1506
Rp1507
sg14
F-1.755226e-05
sg15
F-1.764009e-05
sg16
g4
(g8
S'\xf7\x94\x02\xd7\x89q\xf2\xbe'
p1508
tp1509
Rp1510
ssI1000
(dp1511
g3
g4
(g8
S'wwV\x88<\xa7\x81>'
p1512
tp1513
Rp1514
sg14
F-0.0002969302
sg15
F-0.0002974826
sg16
g4
(g8
S'\xda\x94!9\xd2v3\xbf'
p1515
tp1516
Rp1517
ssI22000
(dp1518
g3
g4
(g8
S'\xe8\xf5d\x9c\x92-Y>'
p1519
tp1520
Rp1521
sg14
F-0.006818364
sg15
F-0.006818437
sg16
g4
(g8
S'P\xaf\x9e\x14\x9c\xed{\xbf'
p1522
tp1523
Rp1524
ssI500
(dp1525
g3
g4
(g8
S'\x7f\xea3\xaf\xf94d>'
p1526
tp1527
Rp1528
sg14
F-0.0001416872
sg15
F-0.000141819
sg16
g4
(g8
S'\x11\x88\xbe\x0fL\x94"\xbf'
p1529
tp1530
Rp1531
sssI9
(dp1532
I0
(dp1533
g3
g4
(g8
S'>J\xb8\xdd%\tk>'
p1534
tp1535
Rp1536
sg14
F1.356619e-05
sg15
F1.340724e-05
sg16
g4
(g8
S'\x13\x10\r\x15FN\xec>'
p1537
tp1538
Rp1539
ssI16000
(dp1540
g3
g4
(g8
S'\xe4\x85\xc4\xbf\x19\x0cg>'
p1541
tp1542
Rp1543
sg14
F-0.004957547
sg15
F-0.004957729
sg16
g4
(g8
S'\xc3\xe1"\x7f~Nt\xbf'
p1544
tp1545
Rp1546
ssI900
(dp1547
g3
g4
(g8
S'2e7y\x82\x95u>'
p1548
tp1549
Rp1550
sg14
F-0.0002656886
sg15
F-0.0002660408
sg16
g4
(g8
S'\xaaUH\xa7\x8fj1\xbf'
p1551
tp1552
Rp1553
ssI37000
(dp1554
g3
g4
(g8
S'\x04\x00\x19\x84 >Z>'
p1555
tp1556
Rp1557
sg14
F-0.01147926
sg15
F-0.01147933
sg16
g4
(g8
S'-F}\xc2t\x82\x87\xbf'
p1558
tp1559
Rp1560
ssI400
(dp1561
g3
g4
(g8
S"d'\x07\xd6y\x9fY>"
p1562
tp1563
Rp1564
sg14
F-0.0001106054
sg15
F-0.0001106945
sg16
g4
(g8
S'\xe7-\r\x05I\x02\x1d\xbf'
p1565
tp1566
Rp1567
ssI600
(dp1568
g3
g4
(g8
S"\x8b;'\xf6\x08k\\>"
p1569
tp1570
Rp1571
sg14
F-0.0001727351
sg15
F-0.0001728287
sg16
g4
(g8
S'\x97\x9d\xda"0\xa5&\xbf'
p1572
tp1573
Rp1574
ssI31000
(dp1575
g3
g4
(g8
S'\xe3F\xe9\xf0\x1f\xa4P>'
p1576
tp1577
Rp1578
sg14
F-0.009616503
sg15
F-0.009616562
sg16
g4
(g8
S'vR\x01\xe8\xd4\xb1\x83\xbf'
p1579
tp1580
Rp1581
ssI25
(dp1582
g3
g4
(g8
S'\xd9m\xb9\xa2/\x88\\>'
p1583
tp1584
Rp1585
sg14
F5.76916e-06
sg15
F5.673501e-06
sg16
g4
(g8
S"~\xf6'\x90\xd5\xf7\xd7>"
p1586
tp1587
Rp1588
ssI800
(dp1589
g3
g4
(g8
S'\x84\xa04\xc3\x86\x1bq>'
p1590
tp1591
Rp1592
sg14
F-0.0002345822
sg15
F-0.0002348559
sg16
g4
(g8
S'\x1d\xe3=7\xe5\xc6.\xbf'
p1593
tp1594
Rp1595
ssI25000
(dp1596
g3
g4
(g8
S'\xe79\xed\xcf\x03\x15`>'
p1597
tp1598
Rp1599
sg14
F-0.007753345
sg15
F-0.007753463
sg16
g4
(g8
S'\xc2\xb1\xa0\xcf\n\xc2\x7f\xbf'
p1600
tp1601
Rp1602
ssI300
(dp1603
g3
g4
(g8
S'\xf9\x8d#\xd6.\x00X>'
p1604
tp1605
Rp1606
sg14
F-7.968909e-05
sg15
F-7.976652e-05
sg16
g4
(g8
S'\xb0e\x88o\xb5\xe6\x14\xbf'
p1607
tp1608
Rp1609
ssI13000
(dp1610
g3
g4
(g8
S'\xb38\xfd\x90\xb0\x0eg>'
p1611
tp1612
Rp1613
sg14
F-0.004025494
sg15
F-0.00402566
sg16
g4
(g8
S':\xed\x15\x0c!}p\xbf'
p1614
tp1615
Rp1616
ssI50
(dp1617
g3
g4
(g8
S'\xd6\x88\xbf\xc2\xaaQZ>'
p1618
tp1619
Rp1620
sg14
F-2.088918e-06
sg15
F-2.168364e-06
sg16
g4
(g8
S'\xed\xfcI\x9b3\xde\xc1\xbe'
p1621
tp1622
Rp1623
ssI19000
(dp1624
g3
g4
(g8
S'\x1dA2\xfaI\x0f\\>'
p1625
tp1626
Rp1627
sg14
F-0.005889117
sg15
F-0.005889216
sg16
g4
(g8
S'0@\x9e\xfb>\x1fx\xbf'
p1628
tp1629
Rp1630
ssI700
(dp1631
g3
g4
(g8
S'\xab\xca\x018H\xcfo>'
p1632
tp1633
Rp1634
sg14
F-0.0002036475
sg15
F-0.0002039009
sg16
g4
(g8
S'tt90\xb2\xb7*\xbf'
p1635
tp1636
Rp1637
ssI40000
(dp1638
g3
g4
(g8
S'$.\x86\xfa\xa8\xb8b>'
p1639
tp1640
Rp1641
sg14
F-0.01241038
sg15
F-0.01241054
sg16
g4
(g8
S'\xde\x10\x1a)\xaaj\x89\xbf'
p1642
tp1643
Rp1644
ssI4000
(dp1645
g3
g4
(g8
S'\x8f`\xbe\xd5\x97$n>'
p1646
tp1647
Rp1648
sg14
F-0.001229071
sg15
F-0.001229304
sg16
g4
(g8
S'\x97)-\xa1\xd5#T\xbf'
p1649
tp1650
Rp1651
ssI200
(dp1652
g3
g4
(g8
S'\x172\x96\xc93\x9aR>'
p1653
tp1654
Rp1655
sg14
F-4.853865e-05
sg15
F-4.859736e-05
sg16
g4
(g8
S'\xf5\xdd\xc8\x9b\xb1w\t\xbf'
p1656
tp1657
Rp1658
ssI75
(dp1659
g3
g4
(g8
S'$%n\xc6n\x87W>'
p1660
tp1661
Rp1662
sg14
F-9.589824e-06
sg15
F-9.662433e-06
sg16
g4
(g8
S'%u\x9a\xd1\xa51\xe4\xbe'
p1663
tp1664
Rp1665
ssI34000
(dp1666
g3
g4
(g8
S'\xe0\x11\xa4gU\x97V>'
p1667
tp1668
Rp1669
sg14
F-0.01054761
sg15
F-0.01054767
sg16
g4
(g8
S'\x95\x81\xadY\x01\x9a\x85\xbf'
p1670
tp1671
Rp1672
ssI7000
(dp1673
g3
g4
(g8
S'\xcf\x13\x14m\x9eYc>'
p1674
tp1675
Rp1676
sg14
F-0.002161295
sg15
F-0.002161439
sg16
g4
(g8
S'\xe5\xc2\xfa%\xb9\xb4a\xbf'
p1677
tp1678
Rp1679
ssI28000
(dp1680
g3
g4
(g8
S'&(\xb7\xf3_*X>'
p1681
tp1682
Rp1683
sg14
F-0.008684717
sg15
F-0.008684809
sg16
g4
(g8
S'\x02el\xd1P\xc9\x81\xbf'
p1684
tp1685
Rp1686
ssI10000
(dp1687
g3
g4
(g8
S'\x9a-fG\\\x87g>'
p1688
tp1689
Rp1690
sg14
F-0.003092972
sg15
F-0.00309311
sg16
g4
(g8
S'\x8e0\x8cE\xa1Vi\xbf'
p1691
tp1692
Rp1693
ssI100
(dp1694
g3
g4
(g8
S'\x98wh?\xc3\xceW>'
p1695
tp1696
Rp1697
sg14
F-1.750509e-05
sg15
F-1.757251e-05
sg16
g4
(g8
S'\x9a\xc1\x0c\x90\xb7b\xf2\xbe'
p1698
tp1699
Rp1700
ssI1000
(dp1701
g3
g4
(g8
S'\x99\xe0\xc4\xea\xee\x9bs>'
p1702
tp1703
Rp1704
sg14
F-0.0002968039
sg15
F-0.0002971276
sg16
g4
(g8
S'P\xd5\xfc\x87zt3\xbf'
p1705
tp1706
Rp1707
ssI22000
(dp1708
g3
g4
(g8
S'\x1e\x1f\x03\xcd[\x88j>'
p1709
tp1710
Rp1711
sg14
F-0.006821599
sg15
F-0.006821786
sg16
g4
(g8
S'Z\x12\tf\x11\xf1{\xbf'
p1712
tp1713
Rp1714
ssI500
(dp1715
g3
g4
(g8
S'7\xeflA\xce+V>'
p1716
tp1717
Rp1718
sg14
F-0.0001415817
sg15
F-0.0001416666
sg16
g4
(g8
S'e\x01\x88\x92Z\x90"\xbf'
p1719
tp1720
Rp1721
sssI10
(dp1722
I0
(dp1723
g3
g4
(g8
S'V\xeb\xb7\xc1B\xe9`>'
p1724
tp1725
Rp1726
sg14
F1.389424e-05
sg15
F1.37745e-05
sg16
g4
(g8
S'o\x9d4Sg\x02\xed>'
p1727
tp1728
Rp1729
ssI16000
(dp1730
g3
g4
(g8
S'\xa2\xda\xdcf\x06\x99R>'
p1731
tp1732
Rp1733
sg14
F-0.004953189
sg15
F-0.004953242
sg16
g4
(g8
S'u\xbc\xd6\x99\xd3It\xbf'
p1734
tp1735
Rp1736
ssI900
(dp1737
g3
g4
(g8
S'9\x9c\xe2\xc0zlu>'
p1738
tp1739
Rp1740
sg14
F-0.0002649502
sg15
F-0.0002652994
sg16
g4
(g8
S'\xb5\x7f6C2^1\xbf'
p1741
tp1742
Rp1743
ssI37000
(dp1744
g3
g4
(g8
S"u'\xabmp\xb7u>"
p1745
tp1746
Rp1747
sg14
F-0.01147675
sg15
F-0.01147706
sg16
g4
(g8
S'\xcfJ;\xb3.\x81\x87\xbf'
p1748
tp1749
Rp1750
ssI400
(dp1751
g3
g4
(g8
S'\x0e\x86p\xbc\xfbwT>'
p1752
tp1753
Rp1754
sg14
F-0.0001100339
sg15
F-0.000110112
sg16
g4
(g8
S'\xf4\xaa\x06\xcc\xc0\xdb\x1c\xbf'
p1755
tp1756
Rp1757
ssI600
(dp1758
g3
g4
(g8
S'\x8d1sa\xdehF>'
p1759
tp1760
Rp1761
sg14
F-0.0001719942
sg15
F-0.0001720376
sg16
g4
(g8
S'\xc1\xa3\xf7\x13\xf5\x8b&\xbf'
p1762
tp1763
Rp1764
ssI31000
(dp1765
g3
g4
(g8
S'\xed\xf6\xd1\xac;Sl>'
p1766
tp1767
Rp1768
sg14
F-0.009613539
sg15
F-0.00961371
sg16
g4
(g8
S'P0\xb9\x90N\xb0\x83\xbf'
p1769
tp1770
Rp1771
ssI25
(dp1772
g3
g4
(g8
S'\x10uT+\xc2q[>'
p1773
tp1774
Rp1775
sg14
F6.463014e-06
sg15
F6.379482e-06
sg16
g4
(g8
S'\xd1l\xb2F\xb6\xe9\xda>'
p1776
tp1777
Rp1778
ssI800
(dp1779
g3
g4
(g8
S'y\x13_{l`n>'
p1780
tp1781
Rp1782
sg14
F-0.0002339113
sg15
F-0.0002341627
sg16
g4
(g8
S'\xd4\xf8\x05\xc9\x0f\xaf.\xbf'
p1783
tp1784
Rp1785
ssI25000
(dp1786
g3
g4
(g8
S'\r\xfc\x99xC\x1bW>'
p1787
tp1788
Rp1789
sg14
F-0.007749072
sg15
F-0.007749152
sg16
g4
(g8
S'\x06\x86\xf4\x1f\x87\xbd\x7f\xbf'
p1790
tp1791
Rp1792
ssI300
(dp1793
g3
g4
(g8
S'\x08\x89\xc5\xf1\x9c;W>'
p1794
tp1795
Rp1796
sg14
F-7.880347e-05
sg15
F-7.889568e-05
sg16
g4
(g8
S'\xfc\x06\xa6\rV\xac\x14\xbf'
p1797
tp1798
Rp1799
ssI13000
(dp1800
g3
g4
(g8
S'{u]a\xfd\xaf[>'
p1801
tp1802
Rp1803
sg14
F-0.004021912
sg15
F-0.004022019
sg16
g4
(g8
S'}_\xc79Wyp\xbf'
p1804
tp1805
Rp1806
ssI50
(dp1807
g3
g4
(g8
S'4\xa7`\x91\xdcWT>'
p1808
tp1809
Rp1810
sg14
F-1.424563e-06
sg15
F-1.487228e-06
sg16
g4
(g8
S'L\xb3`\xadv\x80\xb8\xbe'
p1811
tp1812
Rp1813
ssI19000
(dp1814
g3
g4
(g8
S'\xbam\x06v\x95\xd0d>'
p1815
tp1816
Rp1817
sg14
F-0.005885081
sg15
F-0.005885221
sg16
g4
(g8
S'\xee\x11`E\x02\x1bx\xbf'
p1818
tp1819
Rp1820
ssI700
(dp1821
g3
g4
(g8
S'g\xa7\xa4\xb31Rk>'
p1822
tp1823
Rp1824
sg14
F-0.0002029773
sg15
F-0.0002032
sg16
g4
(g8
S'<\xbd\xe2cp\xa0*\xbf'
p1825
tp1826
Rp1827
ssI40000
(dp1828
g3
g4
(g8
S'\xd7\x0f\xaf\x15\xca)z>'
p1829
tp1830
Rp1831
sg14
F-0.01240881
sg15
F-0.01240913
sg16
g4
(g8
S'\xc1VWt\xd6i\x89\xbf'
p1832
tp1833
Rp1834
ssI4000
(dp1835
g3
g4
(g8
S'\x1c\r\xb9\x82N\xf0\x81>'
p1836
tp1837
Rp1838
sg14
F-0.001227783
sg15
F-0.001228375
sg16
g4
(g8
S'\x94X\x8a\x8c\x1e\x1eT\xbf'
p1839
tp1840
Rp1841
ssI200
(dp1842
g3
g4
(g8
S'\xbbI\xf2\xd4\x1c\xf6Y>'
p1843
tp1844
Rp1845
sg14
F-4.781519e-05
sg15
F-4.791389e-05
sg16
g4
(g8
S'\xbf\xdf\xfb\\\x9b\x19\t\xbf'
p1846
tp1847
Rp1848
ssI75
(dp1849
g3
g4
(g8
S'!g\x00\xfas_a>'
p1850
tp1851
Rp1852
sg14
F-9.2842e-06
sg15
F-9.388566e-06
sg16
g4
(g8
S'\x84QoN\xd9\x94\xe3\xbe'
p1853
tp1854
Rp1855
ssI34000
(dp1856
g3
g4
(g8
S'\xac\x1d\x85\xf4\xb6\x84p>'
p1857
tp1858
Rp1859
sg14
F-0.01054472
sg15
F-0.0105449
sg16
g4
(g8
S'\xee\xb7\xf2i\x80\x98\x85\xbf'
p1860
tp1861
Rp1862
ssI7000
(dp1863
g3
g4
(g8
S"\xceC'\xf5\xe6-X>"
p1864
tp1865
Rp1866
sg14
F-0.002159107
sg15
F-0.002159183
sg16
g4
(g8
S'\xd4\x7f]\xa4\x0c\xb0a\xbf'
p1867
tp1868
Rp1869
ssI28000
(dp1870
g3
g4
(g8
S'\xa1\x047\x97\xf7\xd5`>'
p1871
tp1872
Rp1873
sg14
F-0.008681136
sg15
F-0.00868125
sg16
g4
(g8
S'\x10&1\xb9q\xc7\x81\xbf'
p1874
tp1875
Rp1876
ssI10000
(dp1877
g3
g4
(g8
S'\x00Y\xaeX\x85EJ>'
p1878
tp1879
Rp1880
sg14
F-0.003090263
sg15
F-0.003090306
sg16
g4
(g8
S'\xf5\xc9\r\xa0\xcbPi\xbf'
p1881
tp1882
Rp1883
ssI100
(dp1884
g3
g4
(g8
S'\xf4v\x06\xe7&\x03`>'
p1885
tp1886
Rp1887
sg14
F-1.677115e-05
sg15
F-1.689034e-05
sg16
g4
(g8
S'M*\xa8:t\xac\xf1\xbe'
p1888
tp1889
Rp1890
ssI1000
(dp1891
g3
g4
(g8
S'\x04\t\x04Y\\3v>'
p1892
tp1893
Rp1894
sg14
F-0.0002958491
sg15
F-0.0002961943
sg16
g4
(g8
S'\xe6\xd2\x1fa\x99h3\xbf'
p1895
tp1896
Rp1897
ssI22000
(dp1898
g3
g4
(g8
S'\xf5SX\xeb\xdc\x9fV>'
p1899
tp1900
Rp1901
sg14
F-0.00681761
sg15
F-0.006817693
sg16
g4
(g8
S'W\xfa\xe21\xd0\xec{\xbf'
p1902
tp1903
Rp1904
ssI500
(dp1905
g3
g4
(g8
S'\xb1j\xf3\xee\xfe\xf6[>'
p1906
tp1907
Rp1908
sg14
F-0.0001408095
sg15
F-0.00014091
sg16
g4
(g8
S'qx92\xcev"\xbf'
p1909
tp1910
Rp1911
sssI11
(dp1912
I0
(dp1913
g3
g4
(g8
S'W\\\n\xba\xa2_]>'
p1914
tp1915
Rp1916
sg14
F1.548973e-05
sg15
F1.539235e-05
sg16
g4
(g8
S'#\xf5\x0c*@1\xf0>'
p1917
tp1918
Rp1919
ssI16000
(dp1920
g3
g4
(g8
S'\xd5\xf6o\xc4\x16\x7fT>'
p1921
tp1922
Rp1923
sg14
F-0.00495577
sg15
F-0.004955849
sg16
g4
(g8
S'\xd2\xf3\xd3c\x8dLt\xbf'
p1924
tp1925
Rp1926
ssI900
(dp1927
g3
g4
(g8
S'\xdf\x192M\x9d\x1du>'
p1928
tp1929
Rp1930
sg14
F-0.0002635942
sg15
F-0.0002639369
sg16
g4
(g8
S'\xd2\n\x01\x1ayG1\xbf'
p1931
tp1932
Rp1933
ssI37000
(dp1934
g3
g4
(g8
S'\xdf.\xce\x0bq_T>'
p1935
tp1936
Rp1937
sg14
F-0.01147822
sg15
F-0.01147829
sg16
g4
(g8
S'\xd5\x16\x85\xfa\xe9\x81\x87\xbf'
p1938
tp1939
Rp1940
ssI400
(dp1941
g3
g4
(g8
S'\xb10Yk*\xbcR>'
p1942
tp1943
Rp1944
sg14
F-0.0001084261
sg15
F-0.0001084834
sg16
g4
(g8
S'|\x80\x9e\xe6_n\x1c\xbf'
p1945
tp1946
Rp1947
ssI600
(dp1948
g3
g4
(g8
S'fq\x11)\xa8x\\>'
p1949
tp1950
Rp1951
sg14
F-0.0001704161
sg15
F-0.0001705069
sg16
g4
(g8
S'=\xae\x9e\x07WW&\xbf'
p1952
tp1953
Rp1954
ssI31000
(dp1955
g3
g4
(g8
S'4d\xd3n;\xbaU>'
p1956
tp1957
Rp1958
sg14
F-0.009615276
sg15
F-0.009615348
sg16
g4
(g8
S'\xc3oT\xb8/\xb1\x83\xbf'
p1959
tp1960
Rp1961
ssI25
(dp1962
g3
g4
(g8
S'?\x99\x14j\x86vZ>'
p1963
tp1964
Rp1965
sg14
F7.99413e-06
sg15
F7.900322e-06
sg16
g4
(g8
S'7\r\xff\x7f\x1d\xa6\xe0>'
p1966
tp1967
Rp1968
ssI800
(dp1969
g3
g4
(g8
S'\r\xd5\x10\xf1\xf7xy>'
p1970
tp1971
Rp1972
sg14
F-0.0002321782
sg15
F-0.0002325871
sg16
g4
(g8
S't24\xc7Oz.\xbf'
p1973
tp1974
Rp1975
ssI25000
(dp1976
g3
g4
(g8
S'\xc5!\x86\xb5\xf8H`>'
p1977
tp1978
Rp1979
sg14
F-0.007751415
sg15
F-0.007751529
sg16
g4
(g8
S'\x14BL\xe8\x03\xc0\x7f\xbf'
p1980
tp1981
Rp1982
ssI300
(dp1983
g3
g4
(g8
S'\xd4\xa7\xc5hvGT>'
p1984
tp1985
Rp1986
sg14
F-7.736084e-05
sg15
F-7.743249e-05
sg16
g4
(g8
S'Wy\xe7\xde\nJ\x14\xbf'
p1987
tp1988
Rp1989
ssI13000
(dp1990
g3
g4
(g8
S'\xf0\x13Oxr\x1bZ>'
p1991
tp1992
Rp1993
sg14
F-0.004023637
sg15
F-0.004023743
sg16
g4
(g8
S'|\xe7\xf2\x08*{p\xbf'
p1994
tp1995
Rp1996
ssI50
(dp1997
g3
g4
(g8
S'\x85.\x02\x98M\x8e`>'
p1998
tp1999
Rp2000
sg14
F2.597991e-07
sg15
F1.622546e-07
sg16
g4
(g8
S'p+rR\x14\xfe\x8c>'
p2001
tp2002
Rp2003
ssI19000
(dp2004
g3
g4
(g8
S'0\xd7\x8a\xf2\x17\xeaT>'
p2005
tp2006
Rp2007
sg14
F-0.005887329
sg15
F-0.005887405
sg16
g4
(g8
S'{\xe5\x18\x13W\x1dx\xbf'
p2008
tp2009
Rp2010
ssI700
(dp2011
g3
g4
(g8
S'\xab\xd76L\x8caW>'
p2012
tp2013
Rp2014
sg14
F-0.0002015607
sg15
F-0.0002016476
sg16
g4
(g8
S'\xb7\x81\xd50\xbdl*\xbf'
p2015
tp2016
Rp2017
ssI40000
(dp2018
g3
g4
(g8
S't\x18\xd9\xc7q\xc1X>'
p2019
tp2020
Rp2021
sg14
F-0.01240973
sg15
F-0.01240981
sg16
g4
(g8
S'\xe4&\xff\x9cIj\x89\xbf'
p2022
tp2023
Rp2024
ssI4000
(dp2025
g3
g4
(g8
S'l\xb1:\xdb\x1f\x92x>'
p2026
tp2027
Rp2028
sg14
F-0.001227142
sg15
F-0.001227535
sg16
g4
(g8
S'\xca\x94\xc6\x9b?\x1bT\xbf'
p2029
tp2030
Rp2031
ssI200
(dp2032
g3
g4
(g8
S'\xa3\x81\x08+%nW>'
p2033
tp2034
Rp2035
sg14
F-4.636769e-05
sg15
F-4.645016e-05
sg16
g4
(g8
S'\x96\xcd\x85v\xb2S\x08\xbf'
p2036
tp2037
Rp2038
ssI75
(dp2039
g3
g4
(g8
S'+\xf3V\x84OtZ>'
p2040
tp2041
Rp2042
sg14
F-7.547976e-06
sg15
F-7.641293e-06
sg16
g4
(g8
S'\xcc\x98\x11f\xed\xf2\xdf\xbe'
p2043
tp2044
Rp2045
ssI34000
(dp2046
g3
g4
(g8
S'r\x89\x82#\r!W>'
p2047
tp2048
Rp2049
sg14
F-0.01054638
sg15
F-0.01054645
sg16
g4
(g8
S'~\xb7\xc2\xb9[\x99\x85\xbf'
p2050
tp2051
Rp2052
ssI7000
(dp2053
g3
g4
(g8
S'!\x92\xcbf\\\xe4j>'
p2054
tp2055
Rp2056
sg14
F-0.002159459
sg15
F-0.002159644
sg16
g4
(g8
S'\xa5)u\x16\xec\xb0a\xbf'
p2057
tp2058
Rp2059
ssI28000
(dp2060
g3
g4
(g8
S'bgW\xda\x1a\x1ek>'
p2061
tp2062
Rp2063
sg14
F-0.008683072
sg15
F-0.008683249
sg16
g4
(g8
S'OA\x93?~\xc8\x81\xbf'
p2064
tp2065
Rp2066
ssI10000
(dp2067
g3
g4
(g8
S'\xa9\xc0\xd52@\xecY>'
p2068
tp2069
Rp2070
sg14
F-0.003091685
sg15
F-0.003091785
sg16
g4
(g8
S'\xe7\x86\xae\x9a\xddSi\xbf'
p2071
tp2072
Rp2073
ssI100
(dp2074
g3
g4
(g8
S')\x15\xe4A\xdcrY>'
p2075
tp2076
Rp2077
sg14
F-1.528465e-05
sg15
F-1.536736e-05
sg16
g4
(g8
S'\x94\xe5\x1c\xfe\x98\x11\xf0\xbe'
p2078
tp2079
Rp2080
ssI1000
(dp2081
g3
g4
(g8
S'\xaf\x02&\x8f\xb1<w>'
p2082
tp2083
Rp2084
sg14
F-0.0002945148
sg15
F-0.0002949004
sg16
g4
(g8
S'\x94\xd8Q\nJN3\xbf'
p2085
tp2086
Rp2087
ssI22000
(dp2088
g3
g4
(g8
S'i\xf7\x07\xe9t\xabZ>'
p2089
tp2090
Rp2091
sg14
F-0.006819541
sg15
F-0.006819631
sg16
g4
(g8
S'-VQ\xdf\xd9\xee{\xbf'
p2092
tp2093
Rp2094
ssI500
(dp2095
g3
g4
(g8
S'^\x06}\xaf!\xd8U>'
p2096
tp2097
Rp2098
sg14
F-0.0001395729
sg15
F-0.0001396534
sg16
g4
(g8
S'\xf7$E\xaf\x89L"\xbf'
p2099
tp2100
Rp2101
sssI12
(dp2102
I0
(dp2103
g3
g4
(g8
S'\xd3%\x98B^\xc9`>'
p2104
tp2105
Rp2106
sg14
F1.26259e-05
sg15
F1.252211e-05
sg16
g4
(g8
S'\x03\xa0Ul)e\xea>'
p2107
tp2108
Rp2109
ssI16000
(dp2110
g3
g4
(g8
S'\n\xb7\t*\xf1D`>'
p2111
tp2112
Rp2113
sg14
F-0.004956756
sg15
F-0.00495686
sg16
g4
(g8
S'\x94\x01\x80\x1b\x98Mt\xbf'
p2114
tp2115
Rp2116
ssI900
(dp2117
g3
g4
(g8
S'\x00\xf0\x0f\xa4K%z>'
p2118
tp2119
Rp2120
sg14
F-0.0002665813
sg15
F-0.0002669966
sg16
g4
(g8
S' +@\xddry1\xbf'
p2121
tp2122
Rp2123
ssI37000
(dp2124
g3
g4
(g8
S"\xffr\xf57'\xca{>"
p2125
tp2126
Rp2127
sg14
F-0.01148183
sg15
F-0.0114822
sg16
g4
(g8
S'\x96\xb6d\xc7\xd9\x83\x87\xbf'
p2128
tp2129
Rp2130
ssI400
(dp2131
g3
g4
(g8
S'&1\x08V\xd5\xa7`>'
p2132
tp2133
Rp2134
sg14
F-0.0001113155
sg15
F-0.0001114162
sg16
g4
(g8
S'\x1d\xea\xcb\x01M1\x1d\xbf'
p2135
tp2136
Rp2137
ssI600
(dp2138
g3
g4
(g8
S'<\xee\xda\xc2\xcabU>'
p2139
tp2140
Rp2141
sg14
F-0.0001735772
sg15
F-0.0001736602
sg16
g4
(g8
S'\xc1\x05C\xcf\xb5\xc1&\xbf'
p2142
tp2143
Rp2144
ssI31000
(dp2145
g3
g4
(g8
S'3\xa2\x88\xc0\x7f\xd9j>'
p2146
tp2147
Rp2148
sg14
F-0.009617117
sg15
F-0.009617285
sg16
g4
(g8
S'\xf4\xaf\xad(-\xb2\x83\xbf'
p2149
tp2150
Rp2151
ssI25
(dp2152
g3
g4
(g8
S'\x9d\xf2\xe0\xd5^\xf1X>'
p2153
tp2154
Rp2155
sg14
F4.793358e-06
sg15
F4.704445e-06
sg16
g4
(g8
S'!\xccU\xael\xf0\xd3>'
p2156
tp2157
Rp2158
ssI800
(dp2159
g3
g4
(g8
S'?\xa1\x96R\xe9\xc1u>'
p2160
tp2161
Rp2162
sg14
F-0.0002351103
sg15
F-0.0002354586
sg16
g4
(g8
S'\xf68t\x10\xd3\xda.\xbf'
p2163
tp2164
Rp2165
ssI25000
(dp2166
g3
g4
(g8
S'd\xb0\xfe\x03D*j>'
p2167
tp2168
Rp2169
sg14
F-0.007752614
sg15
F-0.007752751
sg16
g4
(g8
S'\\\x98]\x1cB\xc1\x7f\xbf'
p2170
tp2171
Rp2172
ssI300
(dp2173
g3
g4
(g8
S'\xf1\x9a\x9em\xf9sZ>'
p2174
tp2175
Rp2176
sg14
F-8.021008e-05
sg15
F-8.030246e-05
sg16
g4
(g8
S'\n\x87\xc3\x87X\n\x15\xbf'
p2177
tp2178
Rp2179
ssI13000
(dp2180
g3
g4
(g8
S'C\xb2(\x12\xc1\x07X>'
p2181
tp2182
Rp2183
sg14
F-0.00402496
sg15
F-0.004025035
sg16
g4
(g8
S'\x84\xd6w\x83\x84|p\xbf'
p2184
tp2185
Rp2186
ssI50
(dp2187
g3
g4
(g8
S'\xdc\xeac^\x17\xbbU>'
p2188
tp2189
Rp2190
sg14
F-2.673334e-06
sg15
F-2.735702e-06
sg16
g4
(g8
S'\xeds\x9b\xe2\xe9\xa2\xc6\xbe'
p2191
tp2192
Rp2193
ssI19000
(dp2194
g3
g4
(g8
S'\xcdd\x80;\xf5\xe6J>'
p2195
tp2196
Rp2197
sg14
F-0.005888629
sg15
F-0.005888677
sg16
g4
(g8
S'\xc71\x8f\x85\xb3\x1ex\xbf'
p2198
tp2199
Rp2200
ssI700
(dp2201
g3
g4
(g8
S'\xdd\xc7\x0e\x93Nil>'
p2202
tp2203
Rp2204
sg14
F-0.0002040881
sg15
F-0.0002043142
sg16
g4
(g8
S'\xbe)`]P\xc6*\xbf'
p2205
tp2206
Rp2207
ssI40000
(dp2208
g3
g4
(g8
S'\x08\xdb\\\xaa6M\x7f>'
p2209
tp2210
Rp2211
sg14
F-0.01241428
sg15
F-0.01241472
sg16
g4
(g8
S'MQY\r\xbcl\x89\xbf'
p2212
tp2213
Rp2214
ssI4000
(dp2215
g3
g4
(g8
S'zX8Y\xbd\x0e\x80>'
p2216
tp2217
Rp2218
sg14
F-0.001229521
sg15
F-0.00123002
sg16
g4
(g8
S'!\xbe\x95\xad7%T\xbf'
p2219
tp2220
Rp2221
ssI200
(dp2222
g3
g4
(g8
S'\xca\xd9\x04\xaa\xbcoW>'
p2223
tp2224
Rp2225
sg14
F-4.941615e-05
sg15
F-4.94779e-05
sg16
g4
(g8
S'\xf4\xbc\xa9\xb3\xeb\xec\t\xbf'
p2226
tp2227
Rp2228
ssI75
(dp2229
g3
g4
(g8
S'\x13\xee\x1b+\x8dXK>'
p2230
tp2231
Rp2232
sg14
F-1.049615e-05
sg15
F-1.054787e-05
sg16
g4
(g8
S'\xaf"F\xb3I\x12\xe6\xbe'
p2233
tp2234
Rp2235
ssI34000
(dp2236
g3
g4
(g8
S'm\x97\xd1\x06\xbd\rs>'
p2237
tp2238
Rp2239
sg14
F-0.01054908
sg15
F-0.01054934
sg16
g4
(g8
S'\x9fGjw\xcc\x9a\x85\xbf'
p2240
tp2241
Rp2242
ssI7000
(dp2243
g3
g4
(g8
S'\x10u\xa4\xf5\xc6\x04V>'
p2244
tp2245
Rp2246
sg14
F-0.002161177
sg15
F-0.002161241
sg16
g4
(g8
S',4B\x8bg\xb4a\xbf'
p2247
tp2248
Rp2249
ssI28000
(dp2250
g3
g4
(g8
S'\xc6\x13I\xd2^nc>'
p2251
tp2252
Rp2253
sg14
F-0.008684769
sg15
F-0.008684903
sg16
g4
(g8
S'\x1c\x89\xddcY\xc9\x81\xbf'
p2254
tp2255
Rp2256
ssI10000
(dp2257
g3
g4
(g8
S'\xc1\x14d5\xd2yP>'
p2258
tp2259
Rp2260
sg14
F-0.003092898
sg15
F-0.003092949
sg16
g4
(g8
S'\xeb\xfb,\xedSVi\xbf'
p2261
tp2262
Rp2263
ssI100
(dp2264
g3
g4
(g8
S'\\k\x12\x9d\xfa8R>'
p2265
tp2266
Rp2267
sg14
F-1.836779e-05
sg15
F-1.842523e-05
sg16
g4
(g8
S'\xbf{\xfb\xe6\x00I\xf3\xbe'
p2268
tp2269
Rp2270
ssI1000
(dp2271
g3
g4
(g8
S'&\x9c3^\xa8b{>'
p2272
tp2273
Rp2274
sg14
F-0.0002976388
sg15
F-0.0002980811
sg16
g4
(g8
S'Q|\xc9\xc9\xc6\x823\xbf'
p2275
tp2276
Rp2277
ssI22000
(dp2278
g3
g4
(g8
S'\xef\xb8\xbd\x97\xc6\xc6U>'
p2279
tp2280
Rp2281
sg14
F-0.006820939
sg15
F-0.006821018
sg16
g4
(g8
S'\x8f\xdd\x96\xe9P\xf0{\xbf'
p2282
tp2283
Rp2284
ssI500
(dp2285
g3
g4
(g8
S'\x13\xfe3\xc3\xf2\xf5Y>'
p2286
tp2287
Rp2288
sg14
F-0.0001423909
sg15
F-0.0001424894
sg16
g4
(g8
S'\x8782\xba\x92\xab"\xbf'
p2289
tp2290
Rp2291
sssI13
(dp2292
I0
(dp2293
g3
g4
(g8
S'\xf1\x9ayp\x028i>'
p2294
tp2295
Rp2296
sg14
F1.48611e-05
sg15
F1.472959e-05
sg16
g4
(g8
S'k\xf5\x96\x94\xc7\x02\xef>'
p2297
tp2298
Rp2299
ssI16000
(dp2300
g3
g4
(g8
S'w\xdf\xe9(\x03\xd3H>'
p2301
tp2302
Rp2303
sg14
F-0.004954719
sg15
F-0.004954753
sg16
g4
(g8
S']\xc6whkKt\xbf'
p2304
tp2305
Rp2306
ssI900
(dp2307
g3
g4
(g8
S'G\x0b\x1a\xddCv~>'
p2308
tp2309
Rp2310
sg14
F-0.0002645089
sg15
F-0.0002649911
sg16
g4
(g8
S'\xa3I\xf7\xd4\xc8V1\xbf'
p2311
tp2312
Rp2313
ssI37000
(dp2314
g3
g4
(g8
S'm\xfe8\xeb\x1c\xddn>'
p2315
tp2316
Rp2317
sg14
F-0.01147362
sg15
F-0.0114738
sg16
g4
(g8
S'\x8c\xda\xb3l\x84\x7f\x87\xbf'
p2318
tp2319
Rp2320
ssI400
(dp2321
g3
g4
(g8
S'C\x98q\x8em\x17V>'
p2322
tp2323
Rp2324
sg14
F-0.0001092645
sg15
F-0.0001093407
sg16
g4
(g8
S'\x9e\xa4TI\xe7\xa7\x1c\xbf'
p2325
tp2326
Rp2327
ssI600
(dp2328
g3
g4
(g8
S'\x90\x1aN}\x8e`W>'
p2329
tp2330
Rp2331
sg14
F-0.0001715695
sg15
F-0.0001716477
sg16
g4
(g8
S'-\xe2\xd6,\x18~&\xbf'
p2332
tp2333
Rp2334
ssI31000
(dp2335
g3
g4
(g8
S'Cv\xe6\xbe+}b>'
p2336
tp2337
Rp2338
sg14
F-0.009610845
sg15
F-0.009610998
sg16
g4
(g8
S'\xf1p\x84\n\xe3\xae\x83\xbf'
p2339
tp2340
Rp2341
ssI25
(dp2342
g3
g4
(g8
S'\x12\x97\xd7\xbb*\\V>'
p2343
tp2344
Rp2345
sg14
F7.349119e-06
sg15
F7.271791e-06
sg16
g4
(g8
S'\x93\x9b_\x030\x9f\xde>'
p2346
tp2347
Rp2348
ssI800
(dp2349
g3
g4
(g8
S'[\xb6L\xd9\xc9?j>'
p2350
tp2351
Rp2352
sg14
F-0.0002333222
sg15
F-0.0002335437
sg16
g4
(g8
S'\xef\x0eR+\xd4\x9a.\xbf'
p2353
tp2354
Rp2355
ssI25000
(dp2356
g3
g4
(g8
S'\xdf\x18\xacd\x08va>'
p2357
tp2358
Rp2359
sg14
F-0.00774838
sg15
F-0.007748499
sg16
g4
(g8
S'k\xcfLx\xd3\xbc\x7f\xbf'
p2360
tp2361
Rp2362
ssI300
(dp2363
g3
g4
(g8
S'\xcf\xdf\x06\xa6G\xe4W>'
p2364
tp2365
Rp2366
sg14
F-7.810547e-05
sg15
F-7.817915e-05
sg16
g4
(g8
S'}J\xd6\x17P|\x14\xbf'
p2367
tp2368
Rp2369
ssI13000
(dp2370
g3
g4
(g8
S'\x12\x8b\xdd\x0c\x9b\\Q>'
p2371
tp2372
Rp2373
sg14
F-0.004022845
sg15
F-0.004022909
sg16
g4
(g8
S'\xcb\xac37Kzp\xbf'
p2374
tp2375
Rp2376
ssI50
(dp2377
g3
g4
(g8
S'\xbeN\xb2\x90\xbb9]>'
p2378
tp2379
Rp2380
sg14
F-4.643657e-07
sg15
F-5.701647e-07
sg16
g4
(g8
S'\xf4\xf5\xa4\xb8\xd8u\xa1\xbe'
p2381
tp2382
Rp2383
ssI19000
(dp2384
g3
g4
(g8
S'\xee\r\xbdc\x1bCU>'
p2385
tp2386
Rp2387
sg14
F-0.005885756
sg15
F-0.005885825
sg16
g4
(g8
S'w\xb9\x85C\xb5\x1bx\xbf'
p2388
tp2389
Rp2390
ssI700
(dp2391
g3
g4
(g8
S'\x16\xcc\xc9\xdc9\xed^>'
p2392
tp2393
Rp2394
sg14
F-0.0002023467
sg15
F-0.0002024444
sg16
g4
(g8
S'\xb2\xed\xcb\xdd\x16\x87*\xbf'
p2395
tp2396
Rp2397
ssI40000
(dp2398
g3
g4
(g8
S'\xbc`\xe8\xf7\x00Eu>'
p2399
tp2400
Rp2401
sg14
F-0.01240496
sg15
F-0.01240523
sg16
g4
(g8
S'\x0b\xb7\x97\x91\xcfg\x89\xbf'
p2402
tp2403
Rp2404
ssI4000
(dp2405
g3
g4
(g8
S'\xfd\xa6zF\xc7\xe7x>'
p2406
tp2407
Rp2408
sg14
F-0.001227391
sg15
F-0.001227785
sg16
g4
(g8
S'7\x17\x85|R\x1cT\xbf'
p2409
tp2410
Rp2411
ssI200
(dp2412
g3
g4
(g8
S'\x95\xf1T\xf2i\xe3\\>'
p2413
tp2414
Rp2415
sg14
F-4.701819e-05
sg15
F-4.710975e-05
sg16
g4
(g8
S'\xa3\x98<\xfcs\xac\x08\xbf'
p2416
tp2417
Rp2418
ssI75
(dp2419
g3
g4
(g8
S'%\xaf\xe9\xeei\xd7I>'
p2420
tp2421
Rp2422
sg14
F-8.444219e-06
sg15
F-8.487906e-06
sg16
g4
(g8
S'm\xe6o\xabG\xbe\xe1\xbe'
p2423
tp2424
Rp2425
ssI34000
(dp2426
g3
g4
(g8
S'\xd4\xb8s\xd9\x9e<f>'
p2427
tp2428
Rp2429
sg14
F-0.01054201
sg15
F-0.01054214
sg16
g4
(g8
S'\x16\x02\xfe\xc9\x13\x97\x85\xbf'
p2430
tp2431
Rp2432
ssI7000
(dp2433
g3
g4
(g8
S'@\xec\xb90\x0f\xdcU>'
p2434
tp2435
Rp2436
sg14
F-0.002159142
sg15
F-0.002159223
sg16
g4
(g8
S'\xdbC\xe8\xca \xb0a\xbf'
p2437
tp2438
Rp2439
ssI28000
(dp2440
g3
g4
(g8
S'4\xcd+\x8d-P_>'
p2441
tp2442
Rp2443
sg14
F-0.008679468
sg15
F-0.008679592
sg16
g4
(g8
S'\x82s?\xce\x92\xc6\x81\xbf'
p2444
tp2445
Rp2446
ssI10000
(dp2447
g3
g4
(g8
S'\xe2\x94),\nL\\>'
p2448
tp2449
Rp2450
sg14
F-0.003091102
sg15
F-0.003091207
sg16
g4
(g8
S'\x0cx)\x93\xa5Ri\xbf'
p2451
tp2452
Rp2453
ssI100
(dp2454
g3
g4
(g8
S'IL\xfb\xa0\x94\x8eT>'
p2455
tp2456
Rp2457
sg14
F-1.626533e-05
sg15
F-1.631766e-05
sg16
g4
(g8
S';\xc8\x95\x9f\xdf\x14\xf1\xbe'
p2458
tp2459
Rp2460
ssI1000
(dp2461
g3
g4
(g8
S'],\xd6\x12Erz>'
p2462
tp2463
Rp2464
sg14
F-0.0002956624
sg15
F-0.000296082
sg16
g4
(g8
S'\x03\x8e\xd8\xd3\x96a3\xbf'
p2465
tp2466
Rp2467
ssI22000
(dp2468
g3
g4
(g8
S'k\x99|0\xb4AY>'
p2469
tp2470
Rp2471
sg14
F-0.006816989
sg15
F-0.006817083
sg16
g4
(g8
S'>}N\xbc,\xec{\xbf'
p2472
tp2473
Rp2474
ssI500
(dp2475
g3
g4
(g8
S'\x8f\xa3;`\xddjR>'
p2476
tp2477
Rp2478
sg14
F-0.0001404393
sg15
F-0.0001404981
sg16
g4
(g8
S'\x01\x1c\x14\xd9`i"\xbf'
p2479
tp2480
Rp2481
sssI14
(dp2482
I0
(dp2483
g3
g4
(g8
S'\x96P\xbe\xb5\x10\xc7f>'
p2484
tp2485
Rp2486
sg14
F1.183251e-05
sg15
F1.168618e-05
sg16
g4
(g8
S'\xeaYW\xebw\xaa\xe8>'
p2487
tp2488
Rp2489
ssI16000
(dp2490
g3
g4
(g8
S'H\xbc\xbe\n\xe9\xc3b>'
p2491
tp2492
Rp2493
sg14
F-0.004955163
sg15
F-0.004955263
sg16
g4
(g8
S'Ce\x8b\xfc\xeaKt\xbf'
p2494
tp2495
Rp2496
ssI900
(dp2497
g3
g4
(g8
S'2|\x85\x867\xdfu>'
p2498
tp2499
Rp2500
sg14
F-0.0002677721
sg15
F-0.0002681297
sg16
g4
(g8
S'\x1c\x13\xcc\xda\xaf\x8d1\xbf'
p2501
tp2502
Rp2503
ssI37000
(dp2504
g3
g4
(g8
S'\x1bO\x85\xfa\xcf\x04q>'
p2505
tp2506
Rp2507
sg14
F-0.01147687
sg15
F-0.01147712
sg16
g4
(g8
S'M\x07\x8d\xbf<\x81\x87\xbf'
p2508
tp2509
Rp2510
ssI400
(dp2511
g3
g4
(g8
S'\xc2/n9\xcd\xbbP>'
p2512
tp2513
Rp2514
sg14
F-0.0001125688
sg15
F-0.0001126341
sg16
g4
(g8
S'\x04\x11(o\xc1\x84\x1d\xbf'
p2515
tp2516
Rp2517
ssI600
(dp2518
g3
g4
(g8
S'u\xd6L\x89\x13\x1fY>'
p2519
tp2520
Rp2521
sg14
F-0.0001744641
sg15
F-0.0001745387
sg16
g4
(g8
S's\xf8\x13\x85H\xdf&\xbf'
p2522
tp2523
Rp2524
ssI31000
(dp2525
g3
g4
(g8
S'[\xc2\xc0\xcbhle>'
p2526
tp2527
Rp2528
sg14
F-0.009614182
sg15
F-0.00961435
sg16
g4
(g8
S'VJO\x8d\xa3\xb0\x83\xbf'
p2529
tp2530
Rp2531
ssI25
(dp2532
g3
g4
(g8
S'\xd1v`\xf0\xc6\xa8Y>'
p2533
tp2534
Rp2535
sg14
F4.01086e-06
sg15
F3.918447e-06
sg16
g4
(g8
S'\xce\xa0\xcc\r\x94\x90\xd0>'
p2536
tp2537
Rp2538
ssI800
(dp2539
g3
g4
(g8
S'\xd5Hs\xfb\xc2\x90w>'
p2540
tp2541
Rp2542
sg14
F-0.0002366318
sg15
F-0.0002370199
sg16
g4
(g8
S'4\x8d\xdd\xda\x87\x06/\xbf'
p2543
tp2544
Rp2545
ssI25000
(dp2546
g3
g4
(g8
S'\xc0!\x9b\xfd\x93\xb7\\>'
p2547
tp2548
Rp2549
sg14
F-0.007750647
sg15
F-0.007750758
sg16
g4
(g8
S'\x83\xf3\x96g3\xbf\x7f\xbf'
p2550
tp2551
Rp2552
ssI300
(dp2553
g3
g4
(g8
S'.)X\xe6\x86hP>'
p2554
tp2555
Rp2556
sg14
F-8.151884e-05
sg15
F-8.157099e-05
sg16
g4
(g8
S'AY\xf3\x18X`\x15\xbf'
p2557
tp2558
Rp2559
ssI13000
(dp2560
g3
g4
(g8
S'\xcfq\xe7$\xd5\x15a>'
p2561
tp2562
Rp2563
sg14
F-0.004024162
sg15
F-0.004024291
sg16
g4
(g8
S'\xed\xa4\xad1\xb6{p\xbf'
p2564
tp2565
Rp2566
ssI50
(dp2567
g3
g4
(g8
S'\x93TD\x9d~#S>'
p2568
tp2569
Rp2570
sg14
F-3.884295e-06
sg15
F-3.94586e-06
sg16
g4
(g8
S'\x86\xf1\x8a{\xc1k\xd0\xbe'
p2571
tp2572
Rp2573
ssI19000
(dp2574
g3
g4
(g8
S'^\xa5\xfd,)j]>'
p2575
tp2576
Rp2577
sg14
F-0.005886994
sg15
F-0.005887097
sg16
g4
(g8
S'\xbcZ^\x9b\x02\x1dx\xbf'
p2578
tp2579
Rp2580
ssI700
(dp2581
g3
g4
(g8
S'\xdd\xf3^j\x8b\xf1w>'
p2582
tp2583
Rp2584
sg14
F-0.0002051277
sg15
F-0.0002055041
sg16
g4
(g8
S'!-\xa6\xe5\xec\xed*\xbf'
p2585
tp2586
Rp2587
ssI40000
(dp2588
g3
g4
(g8
S'\x91\xe1\x19\x84 >z>'
p2589
tp2590
Rp2591
sg14
F-0.01240839
sg15
F-0.01240873
sg16
g4
(g8
S'\xedL,\xe6\xa3i\x89\xbf'
p2592
tp2593
Rp2594
ssI4000
(dp2595
g3
g4
(g8
S'\xd5\xeb\xba\x87\xb3\x9ct>'
p2596
tp2597
Rp2598
sg14
F-0.001230151
sg15
F-0.001230492
sg16
g4
(g8
S"\x936\xff\xad\xf0'T\xbf"
p2599
tp2600
Rp2601
ssI200
(dp2602
g3
g4
(g8
S'\xe3\xc9\xfc\xc8\x16;O>'
p2603
tp2604
Rp2605
sg14
F-5.035034e-05
sg15
F-5.040467e-05
sg16
g4
(g8
S'<\xf7\x02\xc0\xabi\n\xbf'
p2606
tp2607
Rp2608
ssI75
(dp2609
g3
g4
(g8
S'7x\xc2\xb8\xba=U>'
p2610
tp2611
Rp2612
sg14
F-1.166954e-05
sg15
F-1.174044e-05
sg16
g4
(g8
S'\xb6z\xbaSf\x8b\xe8\xbe'
p2613
tp2614
Rp2615
ssI34000
(dp2616
g3
g4
(g8
S'\xedr.&*\xb8h>'
p2617
tp2618
Rp2619
sg14
F-0.01054517
sg15
F-0.01054534
sg16
g4
(g8
S":\x82m'\xbe\x98\x85\xbf"
p2620
tp2621
Rp2622
ssI7000
(dp2623
g3
g4
(g8
S'\x83\x93X0\xe0\xc7b>'
p2624
tp2625
Rp2626
sg14
F-0.002161386
sg15
F-0.002161503
sg16
g4
(g8
S'\xe1mxV\xdf\xb4a\xbf'
p2627
tp2628
Rp2629
ssI28000
(dp2630
g3
g4
(g8
S'HA*\x93R;f>'
p2631
tp2632
Rp2633
sg14
F-0.008682237
sg15
F-0.008682394
sg16
g4
(g8
S'<\xb6Up\x07\xc8\x81\xbf'
p2634
tp2635
Rp2636
ssI10000
(dp2637
g3
g4
(g8
S'\xde\x06lv&\xa4_>'
p2638
tp2639
Rp2640
sg14
F-0.003092983
sg15
F-0.003093084
sg16
g4
(g8
S'\xb0\xf2\xd7\xae\x88Vi\xbf'
p2641
tp2642
Rp2643
ssI100
(dp2644
g3
g4
(g8
S'!\xaez\x12\xcb\xe3V>'
p2645
tp2646
Rp2647
sg14
F-1.914538e-05
sg15
F-1.921838e-05
sg16
g4
(g8
S'\xcao\x8b\x8d\x8a\x1c\xf4\xbe'
p2648
tp2649
Rp2650
ssI1000
(dp2651
g3
g4
(g8
S'\xb4\x8e9\x1cc$z>'
p2652
tp2653
Rp2654
sg14
F-0.0002985294
sg15
F-0.0002989523
sg16
g4
(g8
S'\x84Z#\xb3\xa3\x913\xbf'
p2655
tp2656
Rp2657
ssI22000
(dp2658
g3
g4
(g8
S'\x9cR\xc9\x11l\xfc`>'
p2659
tp2660
Rp2661
sg14
F-0.006818749
sg15
F-0.006818866
sg16
g4
(g8
S' \x90\x94\xc1\x0e\xee{\xbf'
p2662
tp2663
Rp2664
ssI500
(dp2665
g3
g4
(g8
S'%E\x8f\x1dt ]>'
p2666
tp2667
Rp2668
sg14
F-0.0001433523
sg15
F-0.0001434497
sg16
g4
(g8
S'\xf5Z`\xb9\xe4\xcb"\xbf'
p2669
tp2670
Rp2671
sssI15
(dp2672
I0
(dp2673
g3
g4
(g8
S'\xcb\xc7\xa2\xda\xe2\x0e]>'
p2674
tp2675
Rp2676
sg14
F1.342153e-05
sg15
F1.332724e-05
sg16
g4
(g8
S'^\xfcV\x18i\x14\xec>'
p2677
tp2678
Rp2679
ssI16000
(dp2680
g3
g4
(g8
S'a\x1b5\x0b\x86\xe1S>'
p2681
tp2682
Rp2683
sg14
F-0.004959164
sg15
F-0.004959221
sg16
g4
(g8
S'\xf4x A\x18Pt\xbf'
p2684
tp2685
Rp2686
ssI900
(dp2687
g3
g4
(g8
S'\xa9 M=^\xc4w>'
p2688
tp2689
Rp2690
sg14
F-0.000266322
sg15
F-0.0002667224
sg16
g4
(g8
S'\xcb\x99\x7f\x0c\x89u1\xbf'
p2691
tp2692
Rp2693
ssI37000
(dp2694
g3
g4
(g8
S'\xe6]\xa4\xd6\xcd\xbcq>'
p2695
tp2696
Rp2697
sg14
F-0.01148228
sg15
F-0.01148254
sg16
g4
(g8
S'\xffrv\xff\x15\x84\x87\xbf'
p2698
tp2699
Rp2700
ssI400
(dp2701
g3
g4
(g8
S'\\\x046\x99\xa7.W>'
p2702
tp2703
Rp2704
sg14
F-0.0001110252
sg15
F-0.0001111259
sg16
g4
(g8
S'_z~9*\x1e\x1d\xbf'
p2705
tp2706
Rp2707
ssI600
(dp2708
g3
g4
(g8
S'\x02\x80\xecYG\x95]>'
p2709
tp2710
Rp2711
sg14
F-0.0001727525
sg15
F-0.0001728551
sg16
g4
(g8
S']ste\xbf\xa6&\xbf'
p2712
tp2713
Rp2714
ssI31000
(dp2715
g3
g4
(g8
S'\xd1L]\xbc\xf3#]>'
p2716
tp2717
Rp2718
sg14
F-0.009619201
sg15
F-0.009619314
sg16
g4
(g8
S'\x91\x80\xdbWA\xb3\x83\xbf'
p2719
tp2720
Rp2721
ssI25
(dp2722
g3
g4
(g8
S'\x84~\x01\xac\xf8k`>'
p2723
tp2724
Rp2725
sg14
F5.730129e-06
sg15
F5.624332e-06
sg16
g4
(g8
S'RIE\x8f1\xce\xd7>'
p2726
tp2727
Rp2728
ssI800
(dp2729
g3
g4
(g8
S'\x062Q\x10\xc1\xc2o>'
p2730
tp2731
Rp2732
sg14
F-0.0002350822
sg15
F-0.0002353448
sg16
g4
(g8
S'Q\x8d64\xfc\xd6.\xbf'
p2733
tp2734
Rp2735
ssI25000
(dp2736
g3
g4
(g8
S'w\x03\x16+Q\xd1a>'
p2737
tp2738
Rp2739
sg14
F-0.007755235
sg15
F-0.007755341
sg16
g4
(g8
S'\xa2\xd9\xc5H\x00\xc4\x7f\xbf'
p2740
tp2741
Rp2742
ssI300
(dp2743
g3
g4
(g8
S'#`\xe0\xdb\xc2\x1aY>'
p2744
tp2745
Rp2746
sg14
F-7.990973e-05
sg15
F-8.000562e-05
sg16
g4
(g8
S'\x01E\xd1\xde\xc8\xf5\x14\xbf'
p2747
tp2748
Rp2749
ssI13000
(dp2750
g3
g4
(g8
S'\x06_\x96\xa6\xc0\x9f]>'
p2751
tp2752
Rp2753
sg14
F-0.004026497
sg15
F-0.004026605
sg16
g4
(g8
S'\xbd\x01\xa5\xe5&~p\xbf'
p2754
tp2755
Rp2756
ssI50
(dp2757
g3
g4
(g8
S'\xc6\xff\x116\xd5?e>'
p2758
tp2759
Rp2760
sg14
F-2.043439e-06
sg15
F-2.187373e-06
sg16
g4
(g8
S'\x8e\xb2\xbc^\xf8\xc1\xc1\xbe'
p2761
tp2762
Rp2763
ssI19000
(dp2764
g3
g4
(g8
S'\xf66\x94E\x8d\x0ca>'
p2765
tp2766
Rp2767
sg14
F-0.005891557
sg15
F-0.005891691
sg16
g4
(g8
S'n\xde\x84=\xd1!x\xbf'
p2768
tp2769
Rp2770
ssI700
(dp2771
g3
g4
(g8
S'!*s\xd7!kx>'
p2772
tp2773
Rp2774
sg14
F-0.0002035874
sg15
F-0.0002039772
sg16
g4
(g8
S'\xbbV\xe1\xda\xf0\xb9*\xbf'
p2775
tp2776
Rp2777
ssI40000
(dp2778
g3
g4
(g8
S'\x7f\xe5\xdd\x83\xfa\x96w>'
p2779
tp2780
Rp2781
sg14
F-0.01241348
sg15
F-0.01241377
sg16
g4
(g8
S'k\xe0!nIl\x89\xbf'
p2782
tp2783
Rp2784
ssI4000
(dp2785
g3
g4
(g8
S'\xe3\x1b\x1d\x19\xc8\xa1\x7f>'
p2786
tp2787
Rp2788
sg14
F-0.00122991
sg15
F-0.001230426
sg16
g4
(g8
S'\xa3\x87\xf0\xde\xfd&T\xbf'
p2789
tp2790
Rp2791
ssI200
(dp2792
g3
g4
(g8
S'\xb2\r\xaa\xda!xO>'
p2793
tp2794
Rp2795
sg14
F-4.871256e-05
sg15
F-4.876376e-05
sg16
g4
(g8
S'\x93\xe6\x11\xd1l\x8d\t\xbf'
p2796
tp2797
Rp2798
ssI75
(dp2799
g3
g4
(g8
S"\xc3'\x18\t\xae*V>"
p2800
tp2801
Rp2802
sg14
F-9.58118e-06
sg15
F-9.658629e-06
sg16
g4
(g8
S'\xf7\xfd\x8d\xac\x91)\xe4\xbe'
p2803
tp2804
Rp2805
ssI34000
(dp2806
g3
g4
(g8
S'\xb8\x91\x9eV\xf2\xf0j>'
p2807
tp2808
Rp2809
sg14
F-0.01055097
sg15
F-0.01055114
sg16
g4
(g8
S'w\x9a\x90\xfd\xc7\x9b\x85\xbf'
p2810
tp2811
Rp2812
ssI7000
(dp2813
g3
g4
(g8
S'\xb3\xc4p\xa8\xed\xf8\\>'
p2814
tp2815
Rp2816
sg14
F-0.002162076
sg15
F-0.002162176
sg16
g4
(g8
S'\xc7\x7f5UZ\xb6a\xbf'
p2817
tp2818
Rp2819
ssI28000
(dp2820
g3
g4
(g8
S'|\xfc~de\x86c>'
p2821
tp2822
Rp2823
sg14
F-0.008686963
sg15
F-0.008687084
sg16
g4
(g8
S'4\x97\x94\xad\x80\xca\x81\xbf'
p2824
tp2825
Rp2826
ssI10000
(dp2827
g3
g4
(g8
S'\x15\t\xc4P\xd4\x1da>'
p2828
tp2829
Rp2830
sg14
F-0.003094134
sg15
F-0.003094254
sg16
g4
(g8
S'zl\xba\x91\xfbXi\xbf'
p2831
tp2832
Rp2833
ssI100
(dp2834
g3
g4
(g8
S'\x1e\xcf\xaae\x88\xa3_>'
p2835
tp2836
Rp2837
sg14
F-1.743656e-05
sg15
F-1.753119e-05
sg16
g4
(g8
S'\x96\xbd\xb2\xbbMR\xf2\xbe'
p2838
tp2839
Rp2840
ssI1000
(dp2841
g3
g4
(g8
S'\xc4I\xc6\x0c\xa7\xcat>'
p2842
tp2843
Rp2844
sg14
F-0.0002970728
sg15
F-0.0002974162
sg16
g4
(g8
S'\x8d\x14a\xe6Wy3\xbf'
p2845
tp2846
Rp2847
ssI22000
(dp2848
g3
g4
(g8
S'\x7f\x0f\xc4\xa7\x89pY>'
p2849
tp2850
Rp2851
sg14
F-0.006823441
sg15
F-0.006823543
sg16
g4
(g8
S'0\xc5xt\xf3\xf2{\xbf'
p2852
tp2853
Rp2854
ssI500
(dp2855
g3
g4
(g8
S'\xd4H-\xc9\n._>'
p2856
tp2857
Rp2858
sg14
F-0.0001417056
sg15
F-0.0001418061
sg16
g4
(g8
S'oh|\xdab\x94"\xbf'
p2859
tp2860
Rp2861
sssI16
(dp2862
I0
(dp2863
g3
g4
(g8
S'B\\\xbc\xe5m\xefd>'
p2864
tp2865
Rp2866
sg14
F1.395793e-05
sg15
F1.381805e-05
sg16
g4
(g8
S'\ra\xd6\xd6@ \xed>'
p2867
tp2868
Rp2869
ssI16000
(dp2870
g3
g4
(g8
S'\xe2\xc3\x00P\xaby_>'
p2871
tp2872
Rp2873
sg14
F-0.004957253
sg15
F-0.004957357
sg16
g4
(g8
S'\xeed\xe1\x01 Nt\xbf'
p2874
tp2875
Rp2876
ssI900
(dp2877
g3
g4
(g8
S'\xc2\x7f5\x15s\x00t>'
p2878
tp2879
Rp2880
sg14
F-0.0002654191
sg15
F-0.0002657354
sg16
g4
(g8
S'\xcc\x1d\xad/\tf1\xbf'
p2881
tp2882
Rp2883
ssI37000
(dp2884
g3
g4
(g8
S'\xf9"jY\xb8&W>'
p2885
tp2886
Rp2887
sg14
F-0.01148567
sg15
F-0.01148575
sg16
g4
(g8
S'fL\xc9\xbc\xd0\x85\x87\xbf'
p2888
tp2889
Rp2890
ssI400
(dp2891
g3
g4
(g8
S'\xd0\xb3\xfd\xd7\x9c%^>'
p2892
tp2893
Rp2894
sg14
F-0.0001102272
sg15
F-0.0001103138
sg16
g4
(g8
S'c\\h\x13\x80\xe7\x1c\xbf'
p2895
tp2896
Rp2897
ssI600
(dp2898
g3
g4
(g8
S':\x85N\xf1,\x92X>'
p2899
tp2900
Rp2901
sg14
F-0.0001724847
sg15
F-0.0001725558
sg16
g4
(g8
S'\x87e;\x83\xb3\x9c&\xbf'
p2902
tp2903
Rp2904
ssI31000
(dp2905
g3
g4
(g8
S'G\x1e\x15\xbf\x15>R>'
p2906
tp2907
Rp2908
sg14
F-0.009620361
sg15
F-0.009620419
sg16
g4
(g8
S'\x12\xccHl\xda\xb3\x83\xbf'
p2909
tp2910
Rp2911
ssI25
(dp2912
g3
g4
(g8
S'\xdf\xaf\xa8\xffa|O>'
p2913
tp2914
Rp2915
sg14
F6.157873e-06
sg15
F6.108285e-06
sg16
g4
(g8
S'\xf1\x8aH9>\xb8\xd9>'
p2916
tp2917
Rp2918
ssI800
(dp2919
g3
g4
(g8
S'\xdc\xf0[\x7f\x8b\x12~>'
p2920
tp2921
Rp2922
sg14
F-0.0002343436
sg15
F-0.0002348176
sg16
g4
(g8
S'3\xb1\xe9:Y\xb9.\xbf'
p2923
tp2924
Rp2925
ssI25000
(dp2926
g3
g4
(g8
S'2p\xec\xc2s\rW>'
p2927
tp2928
Rp2929
sg14
F-0.007755232
sg15
F-0.007755294
sg16
g4
(g8
S'\xec\x83\x1d\xe0\xf8\xc3\x7f\xbf'
p2930
tp2931
Rp2932
ssI300
(dp2933
g3
g4
(g8
S'\xe0\xf6,\xbc\x17NP>'
p2934
tp2935
Rp2936
sg14
F-7.891157e-05
sg15
F-7.896317e-05
sg16
g4
(g8
S'$k\x13\x99b\xb1\x14\xbf'
p2937
tp2938
Rp2939
ssI13000
(dp2940
g3
g4
(g8
S'\x04bEe\x1a4_>'
p2941
tp2942
Rp2943
sg14
F-0.004025004
sg15
F-0.004025127
sg16
g4
(g8
S'\xe3\xd4\x8b\xbe\x9c|p\xbf'
p2944
tp2945
Rp2946
ssI50
(dp2947
g3
g4
(g8
S'\xad\xce\x1d\x00\x95\x93T>'
p2948
tp2949
Rp2950
sg14
F-1.381928e-06
sg15
F-1.442649e-06
sg16
g4
(g8
S'\x9b=\x9eF`\xb7\xb7\xbe'
p2951
tp2952
Rp2953
ssI19000
(dp2954
g3
g4
(g8
S'Q\t\x03\\\xf6\xefW>'
p2955
tp2956
Rp2957
sg14
F-0.005889643
sg15
F-0.005889721
sg16
g4
(g8
S'\x1c\xf4\xa0x\xc6\x1fx\xbf'
p2958
tp2959
Rp2960
ssI700
(dp2961
g3
g4
(g8
S':\x9f:\x08\xdf\xec{>'
p2962
tp2963
Rp2964
sg14
F-0.0002036213
sg15
F-0.0002040613
sg16
g4
(g8
S'\x95\xfc)2E\xb2*\xbf'
p2965
tp2966
Rp2967
ssI40000
(dp2968
g3
g4
(g8
S'|>\xee\x03\xfc5k>'
p2969
tp2970
Rp2971
sg14
F-0.01241802
sg15
F-0.0124182
sg16
g4
(g8
S'B\xd7\xe5`\xa7n\x89\xbf'
p2972
tp2973
Rp2974
ssI4000
(dp2975
g3
g4
(g8
S'\x89\x13\xf3ep\xb8_>'
p2976
tp2977
Rp2978
sg14
F-0.001228651
sg15
F-0.001228784
sg16
g4
(g8
S'\x8a\xc5_@\x98!T\xbf'
p2979
tp2980
Rp2981
ssI200
(dp2982
g3
g4
(g8
S'\x14\x0ep\xa1\xca=Z>'
p2983
tp2984
Rp2985
sg14
F-4.841489e-05
sg15
F-4.851029e-05
sg16
g4
(g8
S'\x15\x11\xb2\x89\xffh\t\xbf'
p2986
tp2987
Rp2988
ssI75
(dp2989
g3
g4
(g8
S'W\xbe\x9bt[\\\\>'
p2990
tp2991
Rp2992
sg14
F-9.303648e-06
sg15
F-9.404523e-06
sg16
g4
(g8
S'\xb51\x1e\xb1\xfe\x9e\xe3\xbe'
p2993
tp2994
Rp2995
ssI34000
(dp2996
g3
g4
(g8
S'\x08\xef&\x1a\x96<\\>'
p2997
tp2998
Rp2999
sg14
F-0.01055271
sg15
F-0.01055279
sg16
g4
(g8
S'\x1c\r\xa7\x9b\xac\x9c\x85\xbf'
p3000
tp3001
Rp3002
ssI7000
(dp3003
g3
g4
(g8
S'\xce\xeb\xf0\xce\xfe\xec_>'
p3004
tp3005
Rp3006
sg14
F-0.002160489
sg15
F-0.002160603
sg16
g4
(g8
S'$`9#\x05\xb3a\xbf'
p3007
tp3008
Rp3009
ssI28000
(dp3010
g3
g4
(g8
S'\x94\x1d\x7f\x12\x1c\x81\\>'
p3011
tp3012
Rp3013
sg14
F-0.008687575
sg15
F-0.008687671
sg16
g4
(g8
S'\xec\xa6\x0c\x91\xd1\xca\x81\xbf'
p3014
tp3015
Rp3016
ssI10000
(dp3017
g3
g4
(g8
S'\x06\xa6\xae\x88\x08\xb4i>'
p3018
tp3019
Rp3020
sg14
F-0.003092867
sg15
F-0.003093016
sg16
g4
(g8
S'\x17a\xfa@gVi\xbf'
p3021
tp3022
Rp3023
ssI100
(dp3024
g3
g4
(g8
S'\xb0\x0f\x06\x17\xa6IX>'
p3025
tp3026
Rp3027
sg14
F-1.712802e-05
sg15
F-1.720984e-05
sg16
g4
(g8
S'2%%\x14\x9e\x01\xf2\xbe'
p3028
tp3029
Rp3030
ssI1000
(dp3031
g3
g4
(g8
S'\xa8E\xf7\x10m\t\x80>'
p3032
tp3033
Rp3034
sg14
F-0.0002965423
sg15
F-0.0002970437
sg16
g4
(g8
S':\xce9!-p3\xbf'
p3035
tp3036
Rp3037
ssI22000
(dp3038
g3
g4
(g8
S'2FP\x97z\x7f^>'
p3039
tp3040
Rp3041
sg14
F-0.006822391
sg15
F-0.0068225
sg16
g4
(g8
S's\xebEP\xda\xf1{\xbf'
p3042
tp3043
Rp3044
ssI500
(dp3045
g3
g4
(g8
S'\x98\xd9!\xb2\xff)]>'
p3046
tp3047
Rp3048
sg14
F-0.0001413513
sg15
F-0.0001414565
sg16
g4
(g8
S'`\xd7\x1e\xaaD\x89"\xbf'
p3049
tp3050
Rp3051
sss.