(dp0
I1
(dp1
S'slope'
p2
F-5.266473563304682
sS'offset'
p3
F-102527.60440901446
ss.(dp0
I1
(dp1
I40000
(dp2
S'std'
p3
cnumpy.core.multiarray
scalar
p4
(cnumpy
dtype
p5
(S'f8'
p6
I0
I1
tp7
Rp8
(I3
S'<'
p9
NNNI-1
I-1
I0
tp10
bS'\xdd\x846c\r\x9be>'
p11
tp12
Rp13
sS'max'
p14
F-0.01240379
sS'min'
p15
F-0.01240396
sS'mean'
p16
g4
(g8
S'\xa3\x93\xa9\xa70g\x89\xbf'
p17
tp18
Rp19
ssI44000
(dp20
g3
g4
(g8
S'\x97\xa1\xbd7\xd1op>'
p21
tp22
Rp23
sg14
F-0.01364541
sg15
F-0.01364565
sg16
g4
(g8
S'\xad\xb9\x9eF,\xf2\x8b\xbf'
p24
tp25
Rp26
ssI48000
(dp27
g3
g4
(g8
S'D\x147\x13#e\xa5>'
p28
tp29
Rp30
sg14
F-0.01269609
sg15
F-0.012698
sg16
g4
(g8
S'\x00A\x8b5\xf4\x00\x8a\xbf'
p31
tp32
Rp33
ssI46000
(dp34
g3
g4
(g8
S"'\xd0\x13\xe2it\xa4>"
p35
tp36
Rp37
sg14
F-0.01268789
sg15
F-0.01268973
sg16
g4
(g8
S'\x0b[ox\x9a\xfc\x89\xbf'
p38
tp39
Rp40
ssI42500
(dp41
g3
g4
(g8
S'@\x89\xba\x9a\xed\xf2x>'
p42
tp43
Rp44
sg14
F-0.01317988
sg15
F-0.01318022
sg16
g4
(g8
S'\xd1\x93\xe0y\x1d\xfe\x8a\xbf'
p45
tp46
Rp47
ssI49000
(dp48
g3
g4
(g8
S'jXT\x9b\x89\xf1\x9f>'
p49
tp50
Rp51
sg14
F-0.01270093
sg15
F-0.01270252
sg16
g4
(g8
S'>}<\xd9p\x03\x8a\xbf'
p52
tp53
Rp54
ssI41000
(dp55
g3
g4
(g8
S'\xab\xd3\xdb=K\xedj>'
p56
tp57
Rp58
sg14
F-0.01271433
sg15
F-0.01271451
sg16
g4
(g8
S'\xf4\xf0p\xfc\x00\n\x8a\xbf'
p59
tp60
Rp61
ssI45500
(dp62
g3
g4
(g8
S'\xed\xa1\xf2\xa7\xa3\x83\xab>'
p63
tp64
Rp65
sg14
F-0.01268714
sg15
F-0.01268978
sg16
g4
(g8
S'\x02\xe8H\x14z\xfc\x89\xbf'
p66
tp67
Rp68
ssI46500
(dp69
g3
g4
(g8
S'\xea\xab\xe1\xb7\\F\xa1>'
p70
tp71
Rp72
sg14
F-0.01268935
sg15
F-0.01269105
sg16
g4
(g8
S'R\x8a7\xe1G\xfd\x89\xbf'
p73
tp74
Rp75
ssI43500
(dp76
g3
g4
(g8
S'x\xe6\n\xd0\xee\x90s>'
p77
tp78
Rp79
sg14
F-0.01349019
sg15
F-0.01349046
sg16
g4
(g8
S'\xae\xb55\xf5\xc7\xa0\x8b\xbf'
p80
tp81
Rp82
ssI49500
(dp83
g3
g4
(g8
S'R\x13\x9a[\x86\xaf\x91>'
p84
tp85
Rp86
sg14
F-0.01270353
sg15
F-0.01270441
sg16
g4
(g8
S'\xf5Zm \x87\x04\x8a\xbf'
p87
tp88
Rp89
ssI42000
(dp90
g3
g4
(g8
S'a/\xbe\xb0=\xc5v>'
p91
tp92
Rp93
sg14
F-0.01302468
sg15
F-0.013025
sg16
g4
(g8
S'\x96,\t|\xbb\xac\x8a\xbf'
p94
tp95
Rp96
ssI45000
(dp97
g3
g4
(g8
S'`\x0e\xcd\x94&r\xb4>'
p98
tp99
Rp100
sg14
F-0.01268806
sg15
F-0.01269183
sg16
g4
(g8
S'\x92\xf1\xc3\x9a+\xfd\x89\xbf'
p101
tp102
Rp103
ssI47000
(dp104
g3
g4
(g8
S'/\x802\x10a\xb5\x9b>'
p105
tp106
Rp107
sg14
F-0.01269157
sg15
F-0.01269304
sg16
g4
(g8
S'\x92\xa1\x8b\xcfb\xfe\x89\xbf'
p108
tp109
Rp110
ssI40500
(dp111
g3
g4
(g8
S'\x13\x00\x19\x04,\xbdn>'
p112
tp113
Rp114
sg14
F-0.01255907
sg15
F-0.01255927
sg16
g4
(g8
S'\xd0\x7f.\x9c\x9a\xb8\x89\xbf'
p115
tp116
Rp117
ssI43000
(dp118
g3
g4
(g8
S']\x1e\x0f|\xaa\x82s>'
p119
tp120
Rp121
sg14
F-0.01333498
sg15
F-0.01333527
sg16
g4
(g8
S'\x17\xfb\xd7ahO\x8b\xbf'
p122
tp123
Rp124
ssI44500
(dp125
g3
g4
(g8
S'\xcfY\xc2\xcaT\x87\xc4>'
p126
tp127
Rp128
sg14
F-0.0126899
sg15
F-0.01269775
sg16
g4
(g8
S'\x1c\x1a\xef\xc2e\xff\x89\xbf'
p129
tp130
Rp131
ssI47500
(dp132
g3
g4
(g8
S'\xea\xe2B_j\xa9\xa0>'
p133
tp134
Rp135
sg14
F-0.01269377
sg15
F-0.01269529
sg16
g4
(g8
S'&\x04:\xae\xa3\xff\x89\xbf'
p136
tp137
Rp138
ssI41500
(dp139
g3
g4
(g8
S'\xd8l\xb0\xe5e\xect>'
p140
tp141
Rp142
sg14
F-0.01286955
sg15
F-0.01286985
sg16
g4
(g8
S'\xdf\x7f\x04\xf9h[\x8a\xbf'
p143
tp144
Rp145
ssI48500
(dp146
g3
g4
(g8
S'h\xc3;y!\x88\x9b>'
p147
tp148
Rp149
sg14
F-0.01269862
sg15
F-0.01269996
sg16
g4
(g8
S'+\xe1\x8a=\x14\x02\x8a\xbf'
p150
tp151
Rp152
sss.