(dp0
I1
(dp1
S'slope'
p2
F-7.7689512623766115
sS'offset'
p3
F377.8466390232448
ssI2
(dp4
g2
F-7.768540221230204
sg3
F302.0269898194992
ssI3
(dp5
g2
F-7.762498699082972
sg3
F292.52511673819106
ssI4
(dp6
g2
F-7.766256153026362
sg3
F273.1439721478424
ssI5
(dp7
g2
F-7.766526917767112
sg3
F321.94399639494964
ssI6
(dp8
g2
F-7.766221474700177
sg3
F309.34700613929635
ssI7
(dp9
g2
F-7.767971774640215
sg3
F428.775194434851
ssI8
(dp10
g2
F-7.766366509680207
sg3
F322.54240105239217
ssI9
(dp11
g2
F-7.767331785556822
sg3
F366.41857381636436
ssI10
(dp12
g2
F-7.765348197232891
sg3
F403.7937050415865
ssI11
(dp13
g2
F-7.769087222527993
sg3
F382.4777696338297
ssI12
(dp14
g2
F-7.76302011954499
sg3
F342.07549726108044
ssI13
(dp15
g2
F-7.766521580616318
sg3
F357.98827574725414
ssI14
(dp16
g2
F-7.76327523601674
sg3
F269.29060084289733
ssI15
(dp17
g2
F-7.76655538728387
sg3
F381.83091283678243
ssI16
(dp18
g2
F-7.767736551571482
sg3
F331.79756725472373
ss.(dp0
I1
(dp1
I0
(dp2
S'std'
p3
cnumpy.core.multiarray
scalar
p4
(cnumpy
dtype
p5
(S'f8'
p6
I0
I1
tp7
Rp8
(I3
S'<'
p9
NNNI-1
I-1
I0
tp10
bS'\x9b\xcbU\x95fQ_>'
p11
tp12
Rp13
sS'max'
p14
F1.514147e-05
sS'min'
p15
F1.501958e-05
sS'mean'
p16
g4
(g8
S'S\xba\x94\x8c\xc0\xa5\xef>'
p17
tp18
Rp19
ssI16000
(dp20
g3
g4
(g8
S'j\x9c\xa5]\x04Q^>'
p21
tp22
Rp23
sg14
F-0.004958362
sg15
F-0.004958462
sg16
g4
(g8
S'2]\xbb\xbaEOt\xbf'
p24
tp25
Rp26
ssI900
(dp27
g3
g4
(g8
S'ZW\xf4\xdc\x88\x87s>'
p28
tp29
Rp30
sg14
F-0.0002642632
sg15
F-0.0002645971
sg16
g4
(g8
S'fmB0qS1\xbf'
p31
tp32
Rp33
ssI37000
(dp34
g3
g4
(g8
S'\x0e\x93\xc2\xb6\x89\x18g>'
p35
tp36
Rp37
sg14
F-0.01148158
sg15
F-0.01148172
sg16
g4
(g8
S'Z\xe0\xdf+\xb0\x83\x87\xbf'
p38
tp39
Rp40
ssI400
(dp41
g3
g4
(g8
S'\xfaa\xd0e\xddPY>'
p42
tp43
Rp44
sg14
F-0.0001088544
sg15
F-0.0001089516
sg16
g4
(g8
S'\xf0\xd58\xe2c\x8c\x1c\xbf'
p45
tp46
Rp47
ssI600
(dp48
g3
g4
(g8
S'\x0f-\x1b\xa0\xee-^>'
p49
tp50
Rp51
sg14
F-0.0001709175
sg15
F-0.0001710273
sg16
g4
(g8
S'sO?W\xe5h&\xbf'
p52
tp53
Rp54
ssI31000
(dp55
g3
g4
(g8
S'\x1aA\x7f\xbb&FP>'
p56
tp57
Rp58
sg14
F-0.009617771
sg15
F-0.009617825
sg16
g4
(g8
S'\xd5\\j\x16\x80\xb2\x83\xbf'
p59
tp60
Rp61
ssI25
(dp62
g3
g4
(g8
S'\x96*\x19k\x83ES>'
p63
tp64
Rp65
sg14
F7.637002e-06
sg15
F7.583907e-06
sg16
g4
(g8
S'&m\x19x\xd3\xec\xdf>'
p66
tp67
Rp68
ssI800
(dp69
g3
g4
(g8
S'\x81\x9f\xd1,\x82\x97{>'
p70
tp71
Rp72
sg14
F-0.0002330987
sg15
F-0.000233539
sg16
g4
(g8
S'\x8cMT\xcc\xd8\x8f.\xbf'
p73
tp74
Rp75
ssI25000
(dp76
g3
g4
(g8
S'jV\xc8\x01\x90\xa4[>'
p77
tp78
Rp79
sg14
F-0.007754453
sg15
F-0.007754551
sg16
g4
(g8
S'I\xd5\x81\xf33\xc3\x7f\xbf'
p80
tp81
Rp82
ssI300
(dp83
g3
g4
(g8
S'\t\xcf\x0bv6~S>'
p84
tp85
Rp86
sg14
F-7.776963e-05
sg15
F-7.783418e-05
sg16
g4
(g8
S'\x00iX5\x99d\x14\xbf'
p87
tp88
Rp89
ssI13000
(dp90
g3
g4
(g8
S'f\x18g\xe5\x16\xe9^>'
p91
tp92
Rp93
sg14
F-0.004025809
sg15
F-0.004025904
sg16
g4
(g8
S'\xd3r\xc9\xb1m}p\xbf'
p94
tp95
Rp96
ssI50
(dp97
g3
g4
(g8
S'\x1et\x0b\xef\x8b\x13K>'
p98
tp99
Rp100
sg14
F-1.68566e-07
sg15
F-2.148163e-07
sg16
g4
(g8
S'\xa9\xba\xd08\xed\x0b\x8a\xbe'
p101
tp102
Rp103
ssI19000
(dp104
g3
g4
(g8
S'\x9d@+b\xcc\xf0X>'
p105
tp106
Rp107
sg14
F-0.005890435
sg15
F-0.005890526
sg16
g4
(g8
S'|\r\xd4\xb6\x9a x\xbf'
p108
tp109
Rp110
ssI700
(dp111
g3
g4
(g8
S'V\x0cq,\x06<s>'
p112
tp113
Rp114
sg14
F-0.0002019949
sg15
F-0.0002023051
sg16
g4
(g8
S'b\xc2n`\xaf{*\xbf'
p115
tp116
Rp117
ssI40000
(dp118
g3
g4
(g8
S'\x8ew\x186\xe2\xdbh>'
p119
tp120
Rp121
sg14
F-0.01241307
sg15
F-0.01241324
sg16
g4
(g8
S'^u\x17:\x0cl\x89\xbf'
p122
tp123
Rp124
ssI4000
(dp125
g3
g4
(g8
S'\xa5=\xc4\x8d\x8a\x11^>'
p126
tp127
Rp128
sg14
F-0.001228439
sg15
F-0.001228558
sg16
g4
(g8
S'\x1bTr;\xa7 T\xbf'
p129
tp130
Rp131
ssI200
(dp132
g3
g4
(g8
S'\xae\xd1\xfe\xfc\x84\x82V>'
p133
tp134
Rp135
sg14
F-4.662797e-05
sg15
F-4.671672e-05
sg16
g4
(g8
S'B\xd4\xe9\x8b\xb2w\x08\xbf'
p136
tp137
Rp138
ssI75
(dp139
g3
g4
(g8
S'\x1e\xd0\x83\x00\x1f\xf4Y>'
p140
tp141
Rp142
sg14
F-8.015555e-06
sg15
F-8.107224e-06
sg16
g4
(g8
S'\x0cv\x9a\xben\xe7\xe0\xbe'
p143
tp144
Rp145
ssI34000
(dp146
g3
g4
(g8
S'\xb8\xcb\xaa\xba\x19\x10X>'
p147
tp148
Rp149
sg14
F-0.0105495
sg15
F-0.01054957
sg16
g4
(g8
S'\x8fC,\x80\xfd\x9a\x85\xbf'
p150
tp151
Rp152
ssI7000
(dp153
g3
g4
(g8
S'\x05\xe5\x9d\x89\xffgd>'
p154
tp155
Rp156
sg14
F-0.002161408
sg15
F-0.002161524
sg16
g4
(g8
S'\xdaR\xec\xce\xf2\xb4a\xbf'
p157
tp158
Rp159
ssI28000
(dp160
g3
g4
(g8
S'\xb5\x8b\x9bX\xd2\xd0P>'
p161
tp162
Rp163
sg14
F-0.008685765
sg15
F-0.008685838
sg16
g4
(g8
S'\x02\xdb\x12\x93\xdc\xc9\x81\xbf'
p164
tp165
Rp166
ssI10000
(dp167
g3
g4
(g8
S"\xb5\xde\xae'UhZ>"
p168
tp169
Rp170
sg14
F-0.003093527
sg15
F-0.00309361
sg16
g4
(g8
S'\x0f\xf65\xee\xb1Wi\xbf'
p171
tp172
Rp173
ssI100
(dp174
g3
g4
(g8
S'\x86\xad\x03\x00\x15$Q>'
p175
tp176
Rp177
sg14
F-1.553527e-05
sg15
F-1.558612e-05
sg16
g4
(g8
S'\xaa\xe9p\xce\xfaP\xf0\xbe'
p178
tp179
Rp180
ssI1000
(dp181
g3
g4
(g8
S'\x19\xd3!\xaf\x7f%|>'
p182
tp183
Rp184
sg14
F-0.0002955697
sg15
F-0.0002960149
sg16
g4
(g8
S'\xfa\x81\xf3s\xd2_3\xbf'
p185
tp186
Rp187
ssI22000
(dp188
g3
g4
(g8
S's\xb5\x1a\xa5\xf1\x99P>'
p189
tp190
Rp191
sg14
F-0.006822787
sg15
F-0.006822842
sg16
g4
(g8
S'\xe7\xfd\x82H@\xf2{\xbf'
p192
tp193
Rp194
ssI500
(dp195
g3
g4
(g8
S'\x1d\x7f\xc5\xf2\xff>T>'
p196
tp197
Rp198
sg14
F-0.0001401014
sg15
F-0.0001401594
sg16
g4
(g8
S'\xfe\x90\x8aN>^"\xbf'
p199
tp200
Rp201
sssI2
(dp202
I0
(dp203
g3
g4
(g8
S'\xa4\xb3\xc5\xa6\xc9\x04\\>'
p204
tp205
Rp206
sg14
F1.181803e-05
sg15
F1.171983e-05
sg16
g4
(g8
S'\\\xa4Z\x83*\xb0\xe8>'
p207
tp208
Rp209
ssI16000
(dp210
g3
g4
(g8
S'\xd8\x94\xec\xa7\xd1\x8e^>'
p211
tp212
Rp213
sg14
F-0.004958712
sg15
F-0.004958821
sg16
g4
(g8
S'\xbe\xe4\xcd\x07\xa8Ot\xbf'
p214
tp215
Rp216
ssI900
(dp217
g3
g4
(g8
S'\xfdWm3\xb4\xa2v>'
p218
tp219
Rp220
sg14
F-0.0002673283
sg15
F-0.0002676962
sg16
g4
(g8
S'\x84v\xf8\x114\x861\xbf'
p221
tp222
Rp223
ssI37000
(dp224
g3
g4
(g8
S'\xdb\xdeS\xa1\x0f\xa0i>'
p225
tp226
Rp227
sg14
F-0.01148667
sg15
F-0.01148685
sg16
g4
(g8
S'\x80\x1cQ\xfbZ\x86\x87\xbf'
p228
tp229
Rp230
ssI400
(dp231
g3
g4
(g8
S']g.\xb0hSU>'
p232
tp233
Rp234
sg14
F-0.0001120744
sg15
F-0.0001121452
sg16
g4
(g8
S'\x8b\xd8#\xe7\xc6c\x1d\xbf'
p235
tp236
Rp237
ssI600
(dp238
g3
g4
(g8
S'=\xd5,#\xfa\xdaR>'
p239
tp240
Rp241
sg14
F-0.0001744381
sg15
F-0.000174493
sg16
g4
(g8
S'B\xaf\x05i\x0c\xde&\xbf'
p242
tp243
Rp244
ssI31000
(dp245
g3
g4
(g8
S'\x98\x05\xea\x87\xfc\x03X>'
p246
tp247
Rp248
sg14
F-0.009621371
sg15
F-0.009621445
sg16
g4
(g8
S'\xeaU\xd5gc\xb4\x83\xbf'
p249
tp250
Rp251
ssI25
(dp252
g3
g4
(g8
S'\xb1\xdc+{\x8c\xd2W>'
p253
tp254
Rp255
sg14
F4.057947e-06
sg15
F3.977964e-06
sg16
g4
(g8
S'\xf6\x04\xb5\n\xf9\xe6\xd0>'
p256
tp257
Rp258
ssI800
(dp259
g3
g4
(g8
S'5\x9b\x039\xf6lx>'
p260
tp261
Rp262
sg14
F-0.0002358021
sg15
F-0.0002361996
sg16
g4
(g8
S'\xdc\x05\xa1\x14v\xf3.\xbf'
p263
tp264
Rp265
ssI25000
(dp266
g3
g4
(g8
S'\xb5bu\x9cM4Q>'
p267
tp268
Rp269
sg14
F-0.007756485
sg15
F-0.007756549
sg16
g4
(g8
S'\xc5\x0bF\x00M\xc5\x7f\xbf'
p270
tp271
Rp272
ssI300
(dp273
g3
g4
(g8
S'\xd7\x9a\xb4\x95a\xacU>'
p274
tp275
Rp276
sg14
F-8.099899e-05
sg15
F-8.106801e-05
sg16
g4
(g8
S'\xfe6\x0bcK>\x15\xbf'
p277
tp278
Rp279
ssI13000
(dp280
g3
g4
(g8
S'l\xd5F\xaa\xec\xcf`>'
p281
tp282
Rp283
sg14
F-0.00402694
sg15
F-0.004027048
sg16
g4
(g8
S'\xc9\xa9\xcd\xe3\x9f~p\xbf'
p284
tp285
Rp286
ssI50
(dp287
g3
g4
(g8
S'\xe9a\xb8\xa8\xcbz]>'
p288
tp289
Rp290
sg14
F-3.822356e-06
sg15
F-3.922024e-06
sg16
g4
(g8
S'\x96\x9c\x10\xe5gA\xd0\xbe'
p291
tp292
Rp293
ssI19000
(dp294
g3
g4
(g8
S'\x11\x94:\xe5=uW>'
p295
tp296
Rp297
sg14
F-0.005891044
sg15
F-0.00589112
sg16
g4
(g8
S'k8\xfb\xba?!x\xbf'
p298
tp299
Rp300
ssI700
(dp301
g3
g4
(g8
S'>\xfd\xdb\xda#\xb8{>'
p302
tp303
Rp304
sg14
F-0.0002051606
sg15
F-0.0002056152
sg16
g4
(g8
S'\xb9L\x06\xcf\xb7\xf0*\xbf'
p305
tp306
Rp307
ssI40000
(dp308
g3
g4
(g8
S'\xc7\x89-]\x19\rt>'
p309
tp310
Rp311
sg14
F-0.0124193
sg15
F-0.01241956
sg16
g4
(g8
S'4\xb1\xa8\xa2Xo\x89\xbf'
p312
tp313
Rp314
ssI4000
(dp315
g3
g4
(g8
S'\xbdEQ\x99"\x9at>'
p316
tp317
Rp318
sg14
F-0.001230528
sg15
F-0.001230854
sg16
g4
(g8
S're\xa7\xdbm)T\xbf'
p319
tp320
Rp321
ssI200
(dp322
g3
g4
(g8
S'\x18\xe3\xa4\x0c\xf1\x87Z>'
p323
tp324
Rp325
sg14
F-5.021274e-05
sg15
F-5.030754e-05
sg16
g4
(g8
S'ml\xfbp[Z\n\xbf'
p326
tp327
Rp328
ssI75
(dp329
g3
g4
(g8
S' 9\xf8R\xec%O>'
p330
tp331
Rp332
sg14
F-1.128489e-05
sg15
F-1.133874e-05
sg16
g4
(g8
S'\xff\x0f=\xb98\xbb\xe7\xbe'
p333
tp334
Rp335
ssI34000
(dp336
g3
g4
(g8
S'\x9f\xa3(\x97p^f>'
p337
tp338
Rp339
sg14
F-0.01055362
sg15
F-0.01055378
sg16
g4
(g8
S'\x1an\xe6\xae*\x9d\x85\xbf'
p340
tp341
Rp342
ssI7000
(dp343
g3
g4
(g8
S'\x99\x1f\xc6\xac\xba\xf6a>'
p344
tp345
Rp346
sg14
F-0.002162455
sg15
F-0.002162581
sg16
g4
(g8
S'\x86T\xd1\xda\x1a\xb7a\xbf'
p347
tp348
Rp349
ssI28000
(dp350
g3
g4
(g8
S'\x86h\xf6\x91\x06\x9ac>'
p351
tp352
Rp353
sg14
F-0.008689072
sg15
F-0.008689202
sg16
g4
(g8
S'\xb1\\.\xe1\x9c\xcb\x81\xbf'
p354
tp355
Rp356
ssI10000
(dp357
g3
g4
(g8
S'\x83V-\x8c\x13\xb3Y>'
p358
tp359
Rp360
sg14
F-0.00309481
sg15
F-0.003094895
sg16
g4
(g8
S'\xf9\x9cN\x84`Zi\xbf'
p361
tp362
Rp363
ssI100
(dp364
g3
g4
(g8
S'\x1ck\xde\xd9\xc8FU>'
p365
tp366
Rp367
sg14
F-1.925273e-05
sg15
F-1.932456e-05
sg16
g4
(g8
S'\x1a\x1c\xd8\x98K8\xf4\xbe'
p368
tp369
Rp370
ssI1000
(dp371
g3
g4
(g8
S'\xde7\xda9A)p>'
p372
tp373
Rp374
sg14
F-0.0002984808
sg15
F-0.0002987602
sg16
g4
(g8
S'\xa1\x16\x08\xfb\xbf\x903\xbf'
p375
tp376
Rp377
ssI22000
(dp378
g3
g4
(g8
S'&\xe6\xc7T\xdc\xd0`>'
p379
tp380
Rp381
sg14
F-0.006823471
sg15
F-0.006823577
sg16
g4
(g8
S'\xc0\xfa\x9d\xf8\xfa\xf2{\xbf'
p382
tp383
Rp384
ssI500
(dp385
g3
g4
(g8
S'\xeb\xf7(\x87\x17\xa4S>'
p386
tp387
Rp388
sg14
F-0.00014335
sg15
F-0.0001434175
sg16
g4
(g8
S'\xb7\x11\xae\x11a\xcb"\xbf'
p389
tp390
Rp391
sssI3
(dp392
I0
(dp393
g3
g4
(g8
S'?#\x84ST\xe4V>'
p394
tp395
Rp396
sg14
F1.168799e-05
sg15
F1.159956e-05
sg16
g4
(g8
S'\xae\xeb\xc8\x01\x8en\xe8>'
p397
tp398
Rp399
ssI16000
(dp400
g3
g4
(g8
S'\x01o\xa6\xeaY)Y>'
p401
tp402
Rp403
sg14
F-0.004957021
sg15
F-0.004957098
sg16
g4
(g8
S'\xd55<2\xdaMt\xbf'
p404
tp405
Rp406
ssI900
(dp407
g3
g4
(g8
S'\xf6/\xb9\xe7\xfe\x19r>'
p408
tp409
Rp410
sg14
F-0.0002677287
sg15
F-0.0002680341
sg16
g4
(g8
S'\x15\xbf\xb3\xc2\xd7\x8c1\xbf'
p411
tp412
Rp413
ssI37000
(dp414
g3
g4
(g8
S'\xca@|#:*q>'
p415
tp416
Rp417
sg14
F-0.01147576
sg15
F-0.01147599
sg16
g4
(g8
S'3\xbc\xd2a\xa3\x80\x87\xbf'
p418
tp419
Rp420
ssI400
(dp421
g3
g4
(g8
S'\xe6:\x08OB\xe2M>'
p422
tp423
Rp424
sg14
F-0.000112329
sg15
F-0.0001123861
sg16
g4
(g8
S'\xea*\x95+\x1dt\x1d\xbf'
p425
tp426
Rp427
ssI600
(dp428
g3
g4
(g8
S'\x04\x89\xcd0\x818_>'
p429
tp430
Rp431
sg14
F-0.0001747453
sg15
F-0.0001748377
sg16
g4
(g8
S'\x02$g\xfc>\xe9&\xbf'
p432
tp433
Rp434
ssI31000
(dp435
g3
g4
(g8
S'\xa1>\xb6kb\xd2a>'
p436
tp437
Rp438
sg14
F-0.009612958
sg15
F-0.009613086
sg16
g4
(g8
S'\xfb\xa32>\xfb\xaf\x83\xbf'
p439
tp440
Rp441
ssI25
(dp442
g3
g4
(g8
S'w\x89\xab\xd1m}L>'
p443
tp444
Rp445
sg14
F4.128973e-06
sg15
F4.080223e-06
sg16
g4
(g8
S'N\x91\x1d\xff\xde;\xd1>'
p446
tp447
Rp448
ssI800
(dp449
g3
g4
(g8
S'\xf1]G\xae\x11`{>'
p450
tp451
Rp452
sg14
F-0.000236411
sg15
F-0.0002368466
sg16
g4
(g8
S'o~R\xe8\xa5\xfe.\xbf'
p453
tp454
Rp455
ssI25000
(dp456
g3
g4
(g8
S'|nUc\x17\x83V>'
p457
tp458
Rp459
sg14
F-0.007750796
sg15
F-0.007750861
sg16
g4
(g8
S'\xaf\x88\xbfAR\xbf\x7f\xbf'
p460
tp461
Rp462
ssI300
(dp463
g3
g4
(g8
S'\x02e\xbc\x15\xc2\xa3U>'
p464
tp465
Rp466
sg14
F-8.109164e-05
sg15
F-8.116309e-05
sg16
g4
(g8
S'\x01\xeb\x12;\x8fD\x15\xbf'
p467
tp468
Rp469
ssI13000
(dp470
g3
g4
(g8
S'\xff`\x9d[\xf1\x01R>'
p471
tp472
Rp473
sg14
F-0.004025113
sg15
F-0.004025179
sg16
g4
(g8
S'\x0b\xa4\xaa\xe0\xa8|p\xbf'
p474
tp475
Rp476
ssI50
(dp477
g3
g4
(g8
S'q\x14C"\x9a\xe1R>'
p478
tp479
Rp480
sg14
F-3.758546e-06
sg15
F-3.821314e-06
sg16
g4
(g8
S'>\xe9=\x18\xa3\xc2\xcf\xbe'
p481
tp482
Rp483
ssI19000
(dp484
g3
g4
(g8
S'\x99Q\x1bRx\x86V>'
p485
tp486
Rp487
sg14
F-0.005888392
sg15
F-0.005888465
sg16
g4
(g8
S'\x02\xa55\x92w\x1ex\xbf'
p488
tp489
Rp490
ssI700
(dp491
g3
g4
(g8
S'\xa8\xbd\xb1\xd1\xbczs>'
p492
tp493
Rp494
sg14
F-0.0002052525
sg15
F-0.0002055608
sg16
g4
(g8
S'\x02s!\xcf\xe3\xef*\xbf'
p495
tp496
Rp497
ssI40000
(dp498
g3
g4
(g8
S'\r\xe7\xdd\x83\xfa\x96w>'
p499
tp500
Rp501
sg14
F-0.01240681
sg15
F-0.01240709
sg16
g4
(g8
S' k\xad2\xcah\x89\xbf'
p502
tp503
Rp504
ssI4000
(dp505
g3
g4
(g8
S'@H\x1a"\xc5\x06]>'
p506
tp507
Rp508
sg14
F-0.001230693
sg15
F-0.001230796
sg16
g4
(g8
S'\xc2\xd7:"0*T\xbf'
p509
tp510
Rp511
ssI200
(dp512
g3
g4
(g8
S'g\xae\xf5\x1e\xbd\xd5R>'
p513
tp514
Rp515
sg14
F-5.005602e-05
sg15
F-5.012788e-05
sg16
g4
(g8
S'\x80\xd0\x9c\xb2\x9bD\n\xbf'
p516
tp517
Rp518
ssI75
(dp519
g3
g4
(g8
S'\xcd_\x8f\xa0"\x8dZ>'
p520
tp521
Rp522
sg14
F-1.162584e-05
sg15
F-1.170924e-05
sg16
g4
(g8
S'T7[JFw\xe8\xbe'
p523
tp524
Rp525
ssI34000
(dp526
g3
g4
(g8
S'|\x00{\xb4\x95Zc>'
p527
tp528
Rp529
sg14
F-0.01054433
sg15
F-0.01054446
sg16
g4
(g8
S'\xd3\xd3\x14\xbeI\x98\x85\xbf'
p530
tp531
Rp532
ssI7000
(dp533
g3
g4
(g8
S'\xba\x85\xb2K$\xf8b>'
p534
tp535
Rp536
sg14
F-0.002162041
sg15
F-0.002162154
sg16
g4
(g8
S'\x1f(.E=\xb6a\xbf'
p537
tp538
Rp539
ssI28000
(dp540
g3
g4
(g8
S'\xbai\xae\xdd\xc1\xf5Y>'
p541
tp542
Rp543
sg14
F-0.008681683
sg15
F-0.008681771
sg16
g4
(g8
S'\xd1\x99\x05\xf1\xb9\xc7\x81\xbf'
p544
tp545
Rp546
ssI10000
(dp547
g3
g4
(g8
S'\x00A\x91\x97\xf6\xb0j>'
p548
tp549
Rp550
sg14
F-0.00309359
sg15
F-0.003093763
sg16
g4
(g8
S'M\xf8\x07x\xf5Wi\xbf'
p551
tp552
Rp553
ssI100
(dp554
g3
g4
(g8
S'}=\xa7\xef\xe7\x9fa>'
p555
tp556
Rp557
sg14
F-1.948589e-05
sg15
F-1.958575e-05
sg16
g4
(g8
S'\xc0\x9e\x04q\xc7z\xf4\xbe'
p558
tp559
Rp560
ssI1000
(dp561
g3
g4
(g8
S'\xdc)\xdc\xa16Su>'
p562
tp563
Rp564
sg14
F-0.000298735
sg15
F-0.0002990854
sg16
g4
(g8
S'I\xc8G\xb7\xee\x943\xbf'
p565
tp566
Rp567
ssI22000
(dp568
g3
g4
(g8
S'\xd8\xcdL\x08Y\xf0S>'
p569
tp570
Rp571
sg14
F-0.006819569
sg15
F-0.006819631
sg16
g4
(g8
S'$\xf2|\xc5\xdc\xee{\xbf'
p572
tp573
Rp574
ssI500
(dp575
g3
g4
(g8
S'\xc8\xe9u~\x13\xd3_>'
p576
tp577
Rp578
sg14
F-0.0001433778
sg15
F-0.0001434744
sg16
g4
(g8
S'\xdc\xb3\x05\x19]\xcc"\xbf'
p579
tp580
Rp581
sssI4
(dp582
I0
(dp583
g3
g4
(g8
S'\xc1\xe8p\x88\xd4\xc0a>'
p584
tp585
Rp586
sg14
F1.047168e-05
sg15
F1.035492e-05
sg16
g4
(g8
S'>\xd3\x95_\x93\xd6\xe5>'
p587
tp588
Rp589
ssI16000
(dp590
g3
g4
(g8
S'\xd5\xb3\xb4\x94\xe1 W>'
p591
tp592
Rp593
sg14
F-0.004958398
sg15
F-0.004958468
sg16
g4
(g8
S'\xcbu\xf5\x0fKOt\xbf'
p594
tp595
Rp596
ssI900
(dp597
g3
g4
(g8
S'\xd3\xc7X\x95e\xdax>'
p598
tp599
Rp600
sg14
F-0.0002685819
sg15
F-0.0002689669
sg16
g4
(g8
S'\x87]\x9e\xf9\xcd\x9a1\xbf'
p601
tp602
Rp603
ssI37000
(dp604
g3
g4
(g8
S'\x8fz\xc8\xb1\xba\xefj>'
p605
tp606
Rp607
sg14
F-0.01148442
sg15
F-0.01148462
sg16
g4
(g8
S'\xfa,\xd9\xf5.\x85\x87\xbf'
p608
tp609
Rp610
ssI400
(dp611
g3
g4
(g8
S'\xa1\xd0J\x7f\x10(L>'
p612
tp613
Rp614
sg14
F-0.0001134179
sg15
F-0.000113462
sg16
g4
(g8
S'b\xd5K\xf9\x1c\xbd\x1d\xbf'
p615
tp616
Rp617
ssI600
(dp618
g3
g4
(g8
S'J%\x17L\xca\xa7P>'
p619
tp620
Rp621
sg14
F-0.0001756136
sg15
F-0.0001756691
sg16
g4
(g8
S"#\x97\xb5\xc1\xbc\x05'\xbf"
p622
tp623
Rp624
ssI31000
(dp625
g3
g4
(g8
S'\x8a\xe7\x88\x13\x8bn[>'
p626
tp627
Rp628
sg14
F-0.0096203
sg15
F-0.0096204
sg16
g4
(g8
S'\xb3|H4\xd4\xb3\x83\xbf'
p629
tp630
Rp631
ssI25
(dp632
g3
g4
(g8
S'\x1cB?\xff\xbd+^>'
p633
tp634
Rp635
sg14
F2.672833e-06
sg15
F2.575278e-06
sg16
g4
(g8
S'\xea\xd7\xe6\x9e\xf5\xf7\xc5>'
p636
tp637
Rp638
ssI800
(dp639
g3
g4
(g8
S'l\r\xe9O^\x9d}>'
p640
tp641
Rp642
sg14
F-0.0002373442
sg15
F-0.0002378071
sg16
g4
(g8
S'$Q\x94}\xc0\x1d/\xbf'
p643
tp644
Rp645
ssI25000
(dp646
g3
g4
(g8
S'\x9dd\xb3\x0bk\xdfX>'
p647
tp648
Rp649
sg14
F-0.007755482
sg15
F-0.007755575
sg16
g4
(g8
S'\xcd\xcc\x15)C\xc4\x7f\xbf'
p650
tp651
Rp652
ssI300
(dp653
g3
g4
(g8
S'!w{\\Z3V>'
p654
tp655
Rp656
sg14
F-8.220418e-05
sg15
F-8.22827e-05
sg16
g4
(g8
S'\x9e\xe2\x8a{\xca\x8f\x15\xbf'
p657
tp658
Rp659
ssI13000
(dp660
g3
g4
(g8
S"\xe5'\xf5y\x96mT>"
p661
tp662
Rp663
sg14
F-0.00402685
sg15
F-0.004026934
sg16
g4
(g8
S'\xe2\xf0\xd6\xb8\x83~p\xbf'
p664
tp665
Rp666
ssI50
(dp667
g3
g4
(g8
S'\x11\xd2\x85\xc7I\xf6V>'
p668
tp669
Rp670
sg14
F-4.893903e-06
sg15
F-4.974042e-06
sg16
g4
(g8
S'\xa6\xfa{\x82\xd5\xb3\xd4\xbe'
p671
tp672
Rp673
ssI19000
(dp674
g3
g4
(g8
S'\xdaPE\xf8\x8eMX>'
p675
tp676
Rp677
sg14
F-0.00589038
sg15
F-0.005890463
sg16
g4
(g8
S'S\x8b\x0b\xbf\x90 x\xbf'
p678
tp679
Rp680
ssI700
(dp681
g3
g4
(g8
S'\xbd\x83\xda@\x7f)z>'
p682
tp683
Rp684
sg14
F-0.000205956
sg15
F-0.0002063717
sg16
g4
(g8
S'\xa3$\x7f\xb7\xc3\n+\xbf'
p685
tp686
Rp687
ssI40000
(dp688
g3
g4
(g8
S'8\x07\xfa0\xfa\x11r>'
p689
tp690
Rp691
sg14
F-0.01241718
sg15
F-0.01241742
sg16
g4
(g8
S'\x8eN\xcad:n\x89\xbf'
p692
tp693
Rp694
ssI4000
(dp695
g3
g4
(g8
S'}x\xf7<\x8d\xc7a>'
p696
tp697
Rp698
sg14
F-0.001231189
sg15
F-0.001231332
sg16
g4
(g8
S':Jt\x085,T\xbf'
p699
tp700
Rp701
ssI200
(dp702
g3
g4
(g8
S'W\xee\xb7\x1b\xde\x9fN>'
p703
tp704
Rp705
sg14
F-5.152413e-05
sg15
F-5.157135e-05
sg16
g4
(g8
S'z\xc1~;\x00\x06\x0b\xbf'
p706
tp707
Rp708
ssI75
(dp709
g3
g4
(g8
S'\xcaa\xf0,\xf6\x14e>'
p710
tp711
Rp712
sg14
F-1.25226e-05
sg15
F-1.267072e-05
sg16
g4
(g8
S'\x13\x9c\xb3\xfa\x98u\xea\xbe'
p713
tp714
Rp715
ssI34000
(dp716
g3
g4
(g8
S'\xa5\xc6\xe8\xc8xHe>'
p717
tp718
Rp719
sg14
F-0.010552
sg15
F-0.01055214
sg16
g4
(g8
S'\n/v\x03O\x9c\x85\xbf'
p720
tp721
Rp722
ssI7000
(dp723
g3
g4
(g8
S'[\xa51\x1b\x8e\xb4X>'
p724
tp725
Rp726
sg14
F-0.002162706
sg15
F-0.002162794
sg16
g4
(g8
S'\xc0cV3\x9a\xb7a\xbf'
p727
tp728
Rp729
ssI28000
(dp730
g3
g4
(g8
S'\xa1Y\xad\x07v\x05X>'
p731
tp732
Rp733
sg14
F-0.008688011
sg15
F-0.008688078
sg16
g4
(g8
S'/\x90yI\n\xcb\x81\xbf'
p734
tp735
Rp736
ssI10000
(dp737
g3
g4
(g8
S'\xe6\xa9;X\x19 L>'
p738
tp739
Rp740
sg14
F-0.003094964
sg15
F-0.003095014
sg16
g4
(g8
S'\xfe;\xb2a\xa6Zi\xbf'
p741
tp742
Rp743
ssI100
(dp744
g3
g4
(g8
S'rkPq\xbeGN>'
p745
tp746
Rp747
sg14
F-2.043936e-05
sg15
F-2.048782e-05
sg16
g4
(g8
S'\x89\xc5\xc1\x0b_v\xf5\xbe'
p748
tp749
Rp750
ssI1000
(dp751
g3
g4
(g8
S'=\xa4\x89\xcb\xee\xea~>'
p752
tp753
Rp754
sg14
F-0.0002997171
sg15
F-0.0003002141
sg16
g4
(g8
S'S\x9e4\x8c\x9e\xa53\xbf'
p755
tp756
Rp757
ssI22000
(dp758
g3
g4
(g8
S'\xb2\xe3\x01N\xa7\x17Y>'
p759
tp760
Rp761
sg14
F-0.006822811
sg15
F-0.006822896
sg16
g4
(g8
S'\xc2A\xc4\x08I\xf2{\xbf'
p762
tp763
Rp764
ssI500
(dp765
g3
g4
(g8
S'^>\x1b;-\x9aR>'
p766
tp767
Rp768
sg14
F-0.0001445504
sg15
F-0.0001446071
sg16
g4
(g8
S'm@+d\xde\xf2"\xbf'
p769
tp770
Rp771
sssI5
(dp772
I0
(dp773
g3
g4
(g8
S'\x02#\xf9\xd7,\x0eY>'
p774
tp775
Rp776
sg14
F1.282778e-05
sg15
F1.273733e-05
sg16
g4
(g8
S']\xa7N\xeeN\xcd\xea>'
p777
tp778
Rp779
ssI16000
(dp780
g3
g4
(g8
S'\x19\xee\xf1\xc3\x14WW>'
p781
tp782
Rp783
sg14
F-0.004958612
sg15
F-0.004958692
sg16
g4
(g8
S'4\xb1G\xff\x87Ot\xbf'
p784
tp785
Rp786
ssI900
(dp787
g3
g4
(g8
S'n\x7f\xcfg\xa8\xa5{>'
p788
tp789
Rp790
sg14
F-0.0002663202
sg15
F-0.0002667627
sg16
g4
(g8
S'\\\x90\xe0\xa23u1\xbf'
p791
tp792
Rp793
ssI37000
(dp794
g3
g4
(g8
S'n\xa8\xeeZ4f\x80>'
p795
tp796
Rp797
sg14
F-0.01147808
sg15
F-0.01147851
sg16
g4
(g8
S'\xaa\xad\xa9\x0e\xe5\x81\x87\xbf'
p798
tp799
Rp800
ssI400
(dp801
g3
g4
(g8
S'\xd0-\x93\xf2\xf8\xe0T>'
p802
tp803
Rp804
sg14
F-0.0001110787
sg15
F-0.000111146
sg16
g4
(g8
S'K\xe9\x08\xfc\xbb \x1d\xbf'
p805
tp806
Rp807
ssI600
(dp808
g3
g4
(g8
S'om\x13\x96\xa5+T>'
p809
tp810
Rp811
sg14
F-0.0001734891
sg15
F-0.0001735436
sg16
g4
(g8
S't\x9a\xa7\x04i\xbe&\xbf'
p812
tp813
Rp814
ssI31000
(dp815
g3
g4
(g8
S'\xf6\xe8\xdd\x18\x00\xeef>'
p816
tp817
Rp818
sg14
F-0.009616303
sg15
F-0.009616461
sg16
g4
(g8
S'\xb1\xd4\xf9>\xbc\xb1\x83\xbf'
p819
tp820
Rp821
ssI25
(dp822
g3
g4
(g8
S'\xf5\x99\x80:\xb40X>'
p823
tp824
Rp825
sg14
F4.980275e-06
sg15
F4.897081e-06
sg16
g4
(g8
S'0x\xce\x82z\xc7\xd4>'
p826
tp827
Rp828
ssI800
(dp829
g3
g4
(g8
S'\xfa\xc2\xbf\xa5b\xb6|>'
p830
tp831
Rp832
sg14
F-0.0002346996
sg15
F-0.000235164
sg16
g4
(g8
S'I\xfc\\\x830\xd0.\xbf'
p833
tp834
Rp835
ssI25000
(dp836
g3
g4
(g8
S'\xf4(\xd5A\x85J_>'
p837
tp838
Rp839
sg14
F-0.007753455
sg15
F-0.007753545
sg16
g4
(g8
S'E\x83\xe1\xc4 \xc2\x7f\xbf'
p840
tp841
Rp842
ssI300
(dp843
g3
g4
(g8
S'\xf5p\xeb=\\@V>'
p844
tp845
Rp846
sg14
F-7.978698e-05
sg15
F-7.987974e-05
sg16
g4
(g8
S'\x16\xdadK)\xee\x14\xbf'
p847
tp848
Rp849
ssI13000
(dp850
g3
g4
(g8
S'\xc0t\x9d\x03\x9a\xca\\>'
p851
tp852
Rp853
sg14
F-0.004026716
sg15
F-0.004026803
sg16
g4
(g8
S'\x83w\x90^\\~p\xbf'
p854
tp855
Rp856
ssI50
(dp857
g3
g4
(g8
S'\x86r_o\x05TO>'
p858
tp859
Rp860
sg14
F-2.549011e-06
sg15
F-2.602886e-06
sg16
g4
(g8
S'\xfd=\xddw"\x9d\xc5\xbe'
p861
tp862
Rp863
ssI19000
(dp864
g3
g4
(g8
S'O\xcem\xe8\x13\x18Q>'
p865
tp866
Rp867
sg14
F-0.005889915
sg15
F-0.005889972
sg16
g4
(g8
S'\x07\x9f\xeeI\x0f x\xbf'
p868
tp869
Rp870
ssI700
(dp871
g3
g4
(g8
S'\x8e\x83`\x8d\xc1\x8a\x7f>'
p872
tp873
Rp874
sg14
F-0.0002036726
sg15
F-0.0002041658
sg16
g4
(g8
S'\xdf/\xf8\x9a\x88\xc0*\xbf'
p875
tp876
Rp877
ssI40000
(dp878
g3
g4
(g8
S'O2\x9f\x18S\x92\x7f>'
p879
tp880
Rp881
sg14
F-0.01240951
sg15
F-0.01240991
sg16
g4
(g8
S'\x9bPZ\x177j\x89\xbf'
p882
tp883
Rp884
ssI4000
(dp885
g3
g4
(g8
S"\xaf'z\xc7\xe8]w>"
p886
tp887
Rp888
sg14
F-0.001229789
sg15
F-0.00123017
sg16
g4
(g8
S'\xef\xd4\x16\xfbi&T\xbf'
p889
tp890
Rp891
ssI200
(dp892
g3
g4
(g8
S'*\xaa\x16z>HQ>'
p893
tp894
Rp895
sg14
F-4.883689e-05
sg15
F-4.890065e-05
sg16
g4
(g8
S']\xe4\x9eP\xdd\x9e\t\xbf'
p896
tp897
Rp898
ssI75
(dp899
g3
g4
(g8
S'Bw\x90]M\x9bQ>'
p900
tp901
Rp902
sg14
F-1.038169e-05
sg15
F-1.043926e-05
sg16
g4
(g8
S'\xcd\\\x83f\x0b\xd6\xe5\xbe'
p903
tp904
Rp905
ssI34000
(dp906
g3
g4
(g8
S'\x00\x0e2\xf5S\x17u>'
p907
tp908
Rp909
sg14
F-0.01054691
sg15
F-0.01054715
sg16
g4
(g8
S',L\xf8\x08\xa9\x99\x85\xbf'
p910
tp911
Rp912
ssI7000
(dp913
g3
g4
(g8
S'o\xdc\xfb\xeaJ>U>'
p914
tp915
Rp916
sg14
F-0.00216181
sg15
F-0.002161871
sg16
g4
(g8
S'\x0b\xa1\xfe\r\xb8\xb5a\xbf'
p917
tp918
Rp919
ssI28000
(dp920
g3
g4
(g8
S'\x07g3\x83jNY>'
p921
tp922
Rp923
sg14
F-0.008684826
sg15
F-0.008684922
sg16
g4
(g8
S'\xd5\xaa\xa4\xe8]\xc9\x81\xbf'
p924
tp925
Rp926
ssI10000
(dp927
g3
g4
(g8
S'bri5\x91s\\>'
p928
tp929
Rp930
sg14
F-0.003094194
sg15
F-0.003094314
sg16
g4
(g8
S')?\x046\x1cYi\xbf'
p931
tp932
Rp933
ssI100
(dp934
g3
g4
(g8
S'c\x14\x01tk\x19J>'
p935
tp936
Rp937
sg14
F-1.821929e-05
sg15
F-1.826047e-05
sg16
g4
(g8
S'\xd3\x8a2\x88\xc3 \xf3\xbe'
p938
tp939
Rp940
ssI1000
(dp941
g3
g4
(g8
S'\x0fL\xfd\x92\xe0Ox>'
p942
tp943
Rp944
sg14
F-0.0002975451
sg15
F-0.0002979354
sg16
g4
(g8
S'FXB\xb5\x13\x813\xbf'
p945
tp946
Rp947
ssI22000
(dp948
g3
g4
(g8
S'g\x03\xe4jl\xcbQ>'
p949
tp950
Rp951
sg14
F-0.006821882
sg15
F-0.006821944
sg16
g4
(g8
S'\x83"T\xeaJ\xf1{\xbf'
p952
tp953
Rp954
ssI500
(dp955
g3
g4
(g8
S'k\xa5\xaa\x9elW[>'
p956
tp957
Rp958
sg14
F-0.0001422541
sg15
F-0.0001423616
sg16
g4
(g8
S'\x030Q[F\xa7"\xbf'
p959
tp960
Rp961
sssI6
(dp962
I0
(dp963
g3
g4
(g8
S'b)\xc1\x14\xe1\x14h>'
p964
tp965
Rp966
sg14
F1.21095e-05
sg15
F1.196021e-05
sg16
g4
(g8
S'\x8dg\xb8\n\x9eG\xe9>'
p967
tp968
Rp969
ssI16000
(dp970
g3
g4
(g8
S'\xe8\xea%\x15\x8f\xdaU>'
p971
tp972
Rp973
sg14
F-0.004957864
sg15
F-0.004957934
sg16
g4
(g8
S'%\xed\ts\xbbNt\xbf'
p974
tp975
Rp976
ssI900
(dp977
g3
g4
(g8
S'S\xd9\xb7\x80\xcc\x8c}>'
p978
tp979
Rp980
sg14
F-0.0002667076
sg15
F-0.0002671806
sg16
g4
(g8
S'\xe0m\xa8<\xc8{1\xbf'
p981
tp982
Rp983
ssI37000
(dp984
g3
g4
(g8
S'\xcb\x18w\xfa\xcen}>'
p985
tp986
Rp987
sg14
F-0.01148158
sg15
F-0.01148199
sg16
g4
(g8
S'e\xd8\xe3\xe5\xb5\x83\x87\xbf'
p988
tp989
Rp990
ssI400
(dp991
g3
g4
(g8
S' \x03\x04r\xbd\xa7|>'
p992
tp993
Rp994
sg14
F-0.0001115655
sg15
F-0.0001118353
sg16
g4
(g8
S'\x97\xd9\xcd\x1c\xd7I\x1d\xbf'
p995
tp996
Rp997
ssI600
(dp998
g3
g4
(g8
S'\x14H\x8c0\xe5lb>'
p999
tp1000
Rp1001
sg14
F-0.0001738293
sg15
F-0.0001739392
sg16
g4
(g8
S'\xfc\x82\x8c\x9c\x00\xca&\xbf'
p1002
tp1003
Rp1004
ssI31000
(dp1005
g3
g4
(g8
S'r?kE\x16\x05q>'
p1006
tp1007
Rp1008
sg14
F-0.00961774
sg15
F-0.009617941
sg16
g4
(g8
S'\x92\xcb\x0f\x00\x81\xb2\x83\xbf'
p1009
tp1010
Rp1011
ssI25
(dp1012
g3
g4
(g8
S'\x00\x80\xe0`v"`>'
p1013
tp1014
Rp1015
sg14
F4.368582e-06
sg15
F4.259383e-06
sg16
g4
(g8
S'P\xdd\xf6\\b\x1f\xd2>'
p1016
tp1017
Rp1018
ssI800
(dp1019
g3
g4
(g8
S'\xb3Q\x81\xcc\x06\xeb}>'
p1020
tp1021
Rp1022
sg14
F-0.0002356751
sg15
F-0.0002361386
sg16
g4
(g8
S"\xf5\xfe'\x1d\xcb\xe5.\xbf"
p1023
tp1024
Rp1025
ssI25000
(dp1026
g3
g4
(g8
S'\xdc\n\x10\xee\xfd\x97a>'
p1027
tp1028
Rp1029
sg14
F-0.007753968
sg15
F-0.007754086
sg16
g4
(g8
S'$\xf0\xfaV\xad\xc2\x7f\xbf'
p1030
tp1031
Rp1032
ssI300
(dp1033
g3
g4
(g8
S'\x05\xee\xe0\xfes\xffR>'
p1034
tp1035
Rp1036
sg14
F-8.066634e-05
sg15
F-8.071935e-05
sg16
g4
(g8
S"\xa36\x0cF>'\x15\xbf"
p1037
tp1038
Rp1039
ssI13000
(dp1040
g3
g4
(g8
S'\x89\xcb\xb5\xd3\xbf\xc2S>'
p1041
tp1042
Rp1043
sg14
F-0.004026158
sg15
F-0.004026229
sg16
g4
(g8
S'\xe4\xbaK\x18\xc4}p\xbf'
p1044
tp1045
Rp1046
ssI50
(dp1047
g3
g4
(g8
S'4cr\x0f\xe1\x0fT>'
p1048
tp1049
Rp1050
sg14
F-3.131592e-06
sg15
F-3.194615e-06
sg16
g4
(g8
S'\n\x91d\x10\xf5\x8e\xca\xbe'
p1051
tp1052
Rp1053
ssI19000
(dp1054
g3
g4
(g8
S'\xfb\xab%[\x85\xb0Z>'
p1055
tp1056
Rp1057
sg14
F-0.00588965
sg15
F-0.005889722
sg16
g4
(g8
S"' \x0eQ\xc9\x1fx\xbf"
p1058
tp1059
Rp1060
ssI700
(dp1061
g3
g4
(g8
S'+b\xab\xf7\xbe/y>'
p1062
tp1063
Rp1064
sg14
F-0.0002050557
sg15
F-0.0002054451
sg16
g4
(g8
S'\xbb\xcd\xfc\x84\xf2\xe1*\xbf'
p1065
tp1066
Rp1067
ssI40000
(dp1068
g3
g4
(g8
S'\xe6bvJ\xf9\xf5\x80>'
p1069
tp1070
Rp1071
sg14
F-0.01241377
sg15
F-0.01241423
sg16
g4
(g8
S'\xaf\xb2\xa8\xe6ul\x89\xbf'
p1072
tp1073
Rp1074
ssI4000
(dp1075
g3
g4
(g8
S'\xb7\x16\x98\xca\xc2\xffP>'
p1076
tp1077
Rp1078
sg14
F-0.001230019
sg15
F-0.001230071
sg16
g4
(g8
S"]\x84\x18U.'T\xbf"
p1079
tp1080
Rp1081
ssI200
(dp1082
g3
g4
(g8
S'\x856\xc1\x7fG]Z>'
p1083
tp1084
Rp1085
sg14
F-5.00636e-05
sg15
F-5.015519e-05
sg16
g4
(g8
S'\xf5S {\x1cF\n\xbf'
p1086
tp1087
Rp1088
ssI75
(dp1089
g3
g4
(g8
S'\xe1\xe9y,\x04\x8aa>'
p1090
tp1091
Rp1092
sg14
F-1.098898e-05
sg15
F-1.10992e-05
sg16
g4
(g8
S"\x81Fj+'-\xe7\xbe"
p1093
tp1094
Rp1095
ssI34000
(dp1096
g3
g4
(g8
S'0k\xe1f_\xb2w>'
p1097
tp1098
Rp1099
sg14
F-0.01054929
sg15
F-0.01054962
sg16
g4
(g8
S'\x86\xcc\xf7\x83\xeb\x9a\x85\xbf'
p1100
tp1101
Rp1102
ssI7000
(dp1103
g3
g4
(g8
S'6\xed\xd6K\xacEX>'
p1104
tp1105
Rp1106
sg14
F-0.002162115
sg15
F-0.002162207
sg16
g4
(g8
S'<vm4a\xb6a\xbf'
p1107
tp1108
Rp1109
ssI28000
(dp1110
g3
g4
(g8
S'\xac\x06Vl\xf7\x1ah>'
p1111
tp1112
Rp1113
sg14
F-0.008685756
sg15
F-0.008685944
sg16
g4
(g8
S'\xa1p\x96H\xde\xc9\x81\xbf'
p1114
tp1115
Rp1116
ssI10000
(dp1117
g3
g4
(g8
S':\xfd4X\xab|_>'
p1118
tp1119
Rp1120
sg14
F-0.00309396
sg15
F-0.00309406
sg16
g4
(g8
S'\x99v\xb5\x11\x98Xi\xbf'
p1121
tp1122
Rp1123
ssI100
(dp1124
g3
g4
(g8
S'\xad\xdcl\xb9l\x04R>'
p1125
tp1126
Rp1127
sg14
F-1.893447e-05
sg15
F-1.899369e-05
sg16
g4
(g8
S"\xe0'\x7fVb\xe1\xf3\xbe"
p1128
tp1129
Rp1130
ssI1000
(dp1131
g3
g4
(g8
S'\x87\xd6\xb1ZlAr>'
p1132
tp1133
Rp1134
sg14
F-0.0002977394
sg15
F-0.0002980346
sg16
g4
(g8
S'\x9c=*xF\x873\xbf'
p1135
tp1136
Rp1137
ssI22000
(dp1138
g3
g4
(g8
S'\xc3\x1f\x1c\x1dhx\\>'
p1139
tp1140
Rp1141
sg14
F-0.006822109
sg15
F-0.0068222
sg16
g4
(g8
S'\xb0\xc8M\xa0\x8b\xf1{\xbf'
p1142
tp1143
Rp1144
ssI500
(dp1145
g3
g4
(g8
S'XO\x9aC\xc7\xe0P>'
p1146
tp1147
Rp1148
sg14
F-0.0001427101
sg15
F-0.0001427701
sg16
g4
(g8
S'\x04>\xbc\x9f\xa4\xb5"\xbf'
p1149
tp1150
Rp1151
sssI7
(dp1152
I0
(dp1153
g3
g4
(g8
S'\x0en?_o\x93a>'
p1154
tp1155
Rp1156
sg14
F1.73788e-05
sg15
F1.725192e-05
sg16
g4
(g8
S'\xeeI\x07\x83-.\xf2>'
p1157
tp1158
Rp1159
ssI16000
(dp1160
g3
g4
(g8
S"^\x18$']\xa3U>"
p1161
tp1162
Rp1163
sg14
F-0.004955566
sg15
F-0.004955644
sg16
g4
(g8
S'\xdd/y\x9cVLt\xbf'
p1164
tp1165
Rp1166
ssI900
(dp1167
g3
g4
(g8
S'^w\xc0\x04\x887t>'
p1168
tp1169
Rp1170
sg14
F-0.0002621205
sg15
F-0.0002624416
sg16
g4
(g8
S'\x93\xc6\x05\xa5s.1\xbf'
p1171
tp1172
Rp1173
ssI37000
(dp1174
g3
g4
(g8
S'\x92\xb4`O\xaeQs>'
p1175
tp1176
Rp1177
sg14
F-0.01147602
sg15
F-0.01147629
sg16
g4
(g8
S'\x8f\x03//\xcc\x80\x87\xbf'
p1178
tp1179
Rp1180
ssI400
(dp1181
g3
g4
(g8
S'\x05\x1e3\xe4\xac\xf5Q>'
p1182
tp1183
Rp1184
sg14
F-0.000106886
sg15
F-0.0001069411
sg16
g4
(g8
S'\xb9\xc1F\xc2t\x06\x1c\xbf'
p1185
tp1186
Rp1187
ssI600
(dp1188
g3
g4
(g8
S'\xa1{\x18U\x16\xbcZ>'
p1189
tp1190
Rp1191
sg14
F-0.0001689316
sg15
F-0.0001690247
sg16
g4
(g8
S'\xb1\x7f\xb8\xbe\xc3%&\xbf'
p1192
tp1193
Rp1194
ssI31000
(dp1195
g3
g4
(g8
S'%%wA\x8a:e>'
p1196
tp1197
Rp1198
sg14
F-0.009613951
sg15
F-0.00961409
sg16
g4
(g8
S'f1\n\xa6\x81\xb0\x83\xbf'
p1199
tp1200
Rp1201
ssI25
(dp1202
g3
g4
(g8
S'\xe4ozz\xf5\x0bT>'
p1203
tp1204
Rp1205
sg14
F9.533975e-06
sg15
F9.468115e-06
sg16
g4
(g8
S'\xb3\x9a\x17{+\xe7\xe3>'
p1206
tp1207
Rp1208
ssI800
(dp1209
g3
g4
(g8
S'\x99s\x0b\xed\xb9\xc8q>'
p1210
tp1211
Rp1212
sg14
F-0.0002306748
sg15
F-0.0002309597
sg16
g4
(g8
S'\x917\xb0\xc5DD.\xbf'
p1213
tp1214
Rp1215
ssI25000
(dp1216
g3
g4
(g8
S'\xec\xee\x03V6\xd9\\>'
p1217
tp1218
Rp1219
sg14
F-0.007750343
sg15
F-0.007750436
sg16
g4
(g8
S'\xd7\xc4\xb4\xc3\xe1\xbe\x7f\xbf'
p1220
tp1221
Rp1222
ssI300
(dp1223
g3
g4
(g8
S'\x12\xf8{\x81R\x0eS>'
p1224
tp1225
Rp1226
sg14
F-7.55823e-05
sg15
F-7.566449e-05
sg16
g4
(g8
S'-\xda\xdd\xd7V\xd3\x13\xbf'
p1227
tp1228
Rp1229
ssI13000
(dp1230
g3
g4
(g8
S'\\%\xf9b?jT>'
p1231
tp1232
Rp1233
sg14
F-0.004023385
sg15
F-0.004023462
sg16
g4
(g8
S'3\x1f\x07R\xdfzp\xbf'
p1234
tp1235
Rp1236
ssI50
(dp1237
g3
g4
(g8
S'`\x8c$\xeb\xeb:R>'
p1238
tp1239
Rp1240
sg14
F1.984982e-06
sg15
F1.923526e-06
sg16
g4
(g8
S'\xeb\xddg\xcc\xfd[\xc0>'
p1241
tp1242
Rp1243
ssI19000
(dp1244
g3
g4
(g8
S'\xa3\x87Y\xa6]=R>'
p1245
tp1246
Rp1247
sg14
F-0.005886904
sg15
F-0.00588697
sg16
g4
(g8
S'J\x811\xd5\xe6\x1cx\xbf'
p1248
tp1249
Rp1250
ssI700
(dp1251
g3
g4
(g8
S'\n\xb2\xddl\x13\x9aP>'
p1252
tp1253
Rp1254
sg14
F-0.0002001822
sg15
F-0.0002002425
sg16
g4
(g8
S'\xa0\x94\x15l\xdc=*\xbf'
p1255
tp1256
Rp1257
ssI40000
(dp1258
g3
g4
(g8
S'\xbeih\xe6\x80\xb6s>'
p1259
tp1260
Rp1261
sg14
F-0.01240768
sg15
F-0.01240792
sg16
g4
(g8
S'\xc6z\xf5\xb6=i\x89\xbf'
p1262
tp1263
Rp1264
ssI4000
(dp1265
g3
g4
(g8
S'\xe3d\xa6\xe4\xccp\\>'
p1266
tp1267
Rp1268
sg14
F-0.001226156
sg15
F-0.001226255
sg16
g4
(g8
S'!\xe3\x86\xdf\x10\x17T\xbf'
p1269
tp1270
Rp1271
ssI200
(dp1272
g3
g4
(g8
S'\x94\xef\x06\xc8C\xcbO>'
p1273
tp1274
Rp1275
sg14
F-4.490839e-05
sg15
F-4.495576e-05
sg16
g4
(g8
S'>\xed\x7f59\x8e\x07\xbf'
p1276
tp1277
Rp1278
ssI75
(dp1279
g3
g4
(g8
S'\x0e\xbaN\x82W\x85U>'
p1280
tp1281
Rp1282
sg14
F-5.857101e-06
sg15
F-5.92764e-06
sg16
g4
(g8
S'\xaf\xec|\xdc\\\xb3\xd8\xbe'
p1283
tp1284
Rp1285
ssI34000
(dp1286
g3
g4
(g8
S't\x11\xcc\xb5\xe5\x8ar>'
p1287
tp1288
Rp1289
sg14
F-0.01054472
sg15
F-0.01054498
sg16
g4
(g8
S'U\x03}\xb9\x83\x98\x85\xbf'
p1290
tp1291
Rp1292
ssI7000
(dp1293
g3
g4
(g8
S';\xe9\x9a_\x8b\xd5T>'
p1294
tp1295
Rp1296
sg14
F-0.002158758
sg15
F-0.002158826
sg16
g4
(g8
S'P%\x9eEP\xafa\xbf'
p1297
tp1298
Rp1299
ssI28000
(dp1300
g3
g4
(g8
S'\xc8\xdb\xe3\xc99\x87]>'
p1301
tp1302
Rp1303
sg14
F-0.00868205
sg15
F-0.008682155
sg16
g4
(g8
S'\xc2\x93Hh\xec\xc7\x81\xbf'
p1304
tp1305
Rp1306
ssI10000
(dp1307
g3
g4
(g8
S'\x8f\x9f\xfa\x0e\x92\x1d`>'
p1308
tp1309
Rp1310
sg14
F-0.003091026
sg15
F-0.003091154
sg16
g4
(g8
S'\x03\xec\x15#\x80Ri\xbf'
p1311
tp1312
Rp1313
ssI100
(dp1314
g3
g4
(g8
S'gfX\xef\xc7\x8fQ>'
p1315
tp1316
Rp1317
sg14
F-1.380098e-05
sg15
F-1.385786e-05
sg16
g4
(g8
S'\x96\x0e\x8f.\x1a\x04\xed\xbe'
p1318
tp1319
Rp1320
ssI1000
(dp1321
g3
g4
(g8
S'u7\xece\xbb\x89u>'
p1322
tp1323
Rp1324
sg14
F-0.0002930003
sg15
F-0.0002933489
sg16
g4
(g8
S'.u\xc1\xe7\x9883\xbf'
p1325
tp1326
Rp1327
ssI22000
(dp1328
g3
g4
(g8
S'\x0b~\x90\xda\xb0oK>'
p1329
tp1330
Rp1331
sg14
F-0.006818543
sg15
F-0.006818593
sg16
g4
(g8
S'\xd3\xae\xab\x89\xca\xed{\xbf'
p1332
tp1333
Rp1334
ssI500
(dp1335
g3
g4
(g8
S'\x9f\xa7\xa4tj\xaeT>'
p1336
tp1337
Rp1338
sg14
F-0.0001378203
sg15
F-0.0001378832
sg16
g4
(g8
S'|\x1bYC~\x11"\xbf'
p1339
tp1340
Rp1341
sssI8
(dp1342
I0
(dp1343
g3
g4
(g8
S'V|\x19O\x96\x10b>'
p1344
tp1345
Rp1346
sg14
F1.265017e-05
sg15
F1.252624e-05
sg16
g4
(g8
S'=\x1a\xf2?(k\xea>'
p1347
tp1348
Rp1349
ssI16000
(dp1350
g3
g4
(g8
S'R-$&\xea\x94b>'
p1351
tp1352
Rp1353
sg14
F-0.004957467
sg15
F-0.004957597
sg16
g4
(g8
S'\x917\x0b\xbcWNt\xbf'
p1354
tp1355
Rp1356
ssI900
(dp1357
g3
g4
(g8
S'(\x97\xaf\xa4I\xf1z>'
p1358
tp1359
Rp1360
sg14
F-0.0002664479
sg15
F-0.0002668772
sg16
g4
(g8
S'\x8d\x06*\xf5cw1\xbf'
p1361
tp1362
Rp1363
ssI37000
(dp1364
g3
g4
(g8
S'R\xb8\x19j\xa2 s>'
p1365
tp1366
Rp1367
sg14
F-0.01148176
sg15
F-0.01148198
sg16
g4
(g8
S'\xf2\x8c9\xac\xc9\x83\x87\xbf'
p1368
tp1369
Rp1370
ssI400
(dp1371
g3
g4
(g8
S'\xb7m[)7\xbaW>'
p1372
tp1373
Rp1374
sg14
F-0.000111219
sg15
F-0.000111295
sg16
g4
(g8
S'\x0f\x00C\x9aP)\x1d\xbf'
p1375
tp1376
Rp1377
ssI600
(dp1378
g3
g4
(g8
S'\xd0\x8f(\xec\x8c\xfeX>'
p1379
tp1380
Rp1381
sg14
F-0.0001734576
sg15
F-0.000173558
sg16
g4
(g8
S'?q\xeaH\xce\xbd&\xbf'
p1382
tp1383
Rp1384
ssI31000
(dp1385
g3
g4
(g8
S'e\x9c\x08\xd6\x8aV`>'
p1386
tp1387
Rp1388
sg14
F-0.009617824
sg15
F-0.00961793
sg16
g4
(g8
S'N8\xae\x1d\x89\xb2\x83\xbf'
p1389
tp1390
Rp1391
ssI25
(dp1392
g3
g4
(g8
S' \x8f]\t\x06\xb7`>'
p1393
tp1394
Rp1395
sg14
F4.902798e-06
sg15
F4.779619e-06
sg16
g4
(g8
S'`\xab\x9d\x88\x18Z\xd4>'
p1396
tp1397
Rp1398
ssI800
(dp1399
g3
g4
(g8
S"\xd3F\xcd\xc6\x1f'r>"
p1400
tp1401
Rp1402
sg14
F-0.0002353201
sg15
F-0.0002356212
sg16
g4
(g8
S'U\x1fS\x1b-\xda.\xbf'
p1403
tp1404
Rp1405
ssI25000
(dp1406
g3
g4
(g8
S'\x80=v\xa2x\x0eZ>'
p1407
tp1408
Rp1409
sg14
F-0.007753429
sg15
F-0.0077535
sg16
g4
(g8
S'\xae\x9e\x10\x8e\x18\xc2\x7f\xbf'
p1410
tp1411
Rp1412
ssI300
(dp1413
g3
g4
(g8
S'\x0c\x03\xc9#\xa1Pa>'
p1414
tp1415
Rp1416
sg14
F-8.032892e-05
sg15
F-8.046011e-05
sg16
g4
(g8
S'\x90x\xf2\xd9,\x13\x15\xbf'
p1417
tp1418
Rp1419
ssI13000
(dp1420
g3
g4
(g8
S'&/\xb7\x98\x8f\x98`>'
p1421
tp1422
Rp1423
sg14
F-0.004025624
sg15
F-0.004025721
sg16
g4
(g8
S'\xe9\x10\xc4r5}p\xbf'
p1424
tp1425
Rp1426
ssI50
(dp1427
g3
g4
(g8
S'\xb9~\x81\x85`\x86X>'
p1428
tp1429
Rp1430
sg14
F-2.914425e-06
sg15
F-2.986113e-06
sg16
g4
(g8
S'\xf7\xd7p\x13\xd9\xaf\xc8\xbe'
p1431
tp1432
Rp1433
ssI19000
(dp1434
g3
g4
(g8
S'\xea\x9eG\xab\xd8\xeaR>'
p1435
tp1436
Rp1437
sg14
F-0.005889253
sg15
F-0.005889317
sg16
g4
(g8
S'#\xd8\xab\xd4[\x1fx\xbf'
p1438
tp1439
Rp1440
ssI700
(dp1441
g3
g4
(g8
S'7,vZf\xea}>'
p1442
tp1443
Rp1444
sg14
F-0.0002045784
sg15
F-0.0002050616
sg16
g4
(g8
S'\r\xael\x91\xe8\xd2*\xbf'
p1445
tp1446
Rp1447
ssI40000
(dp1448
g3
g4
(g8
S'\xcf\x84\x83B\xc1\x95|>'
p1449
tp1450
Rp1451
sg14
F-0.01241426
sg15
F-0.01241462
sg16
g4
(g8
S'^\xca,\x85\xb5l\x89\xbf'
p1452
tp1453
Rp1454
ssI4000
(dp1455
g3
g4
(g8
S'\xe7\x1d\xf8\x9d/\xd3e>'
p1456
tp1457
Rp1458
sg14
F-0.001229385
sg15
F-0.00122956
sg16
g4
(g8
S';)-P\x8e$T\xbf'
p1459
tp1460
Rp1461
ssI200
(dp1462
g3
g4
(g8
S'nn\xe9\xdd.\xf5\\>'
p1463
tp1464
Rp1465
sg14
F-4.933986e-05
sg15
F-4.943731e-05
sg16
g4
(g8
S'JOW:)\xe5\t\xbf'
p1466
tp1467
Rp1468
ssI75
(dp1469
g3
g4
(g8
S'\xee>P\xf1a\xfaH>'
p1470
tp1471
Rp1472
sg14
F-1.043493e-05
sg15
F-1.047596e-05
sg16
g4
(g8
S'G;bB\xc2\xec\xe5\xbe'
p1473
tp1474
Rp1475
ssI34000
(dp1476
g3
g4
(g8
S'\xa2\x0bU~\xfa\xb2o>'
p1477
tp1478
Rp1479
sg14
F-0.0105494
sg15
F-0.01054963
sg16
g4
(g8
S'\x06\x89I\x90\xf9\x9a\x85\xbf'
p1480
tp1481
Rp1482
ssI7000
(dp1483
g3
g4
(g8
S'\x82\xd5n\xed\xe4\xe9V>'
p1484
tp1485
Rp1486
sg14
F-0.002161287
sg15
F-0.002161355
sg16
g4
(g8
S'\xdf\xe5\x82\xf3\x9f\xb4a\xbf'
p1487
tp1488
Rp1489
ssI28000
(dp1490
g3
g4
(g8
S'\xea\\T \xfa=Z>'
p1491
tp1492
Rp1493
sg14
F-0.008685574
sg15
F-0.008685665
sg16
g4
(g8
S' \x05\xa9\xfe\xc3\xc9\x81\xbf'
p1494
tp1495
Rp1496
ssI10000
(dp1497
g3
g4
(g8
S'\x83\xcc\x0eIZ V>'
p1498
tp1499
Rp1500
sg14
F-0.003093143
sg15
F-0.003093216
sg16
g4
(g8
S'\x8e\xba\x00:\xdfVi\xbf'
p1501
tp1502
Rp1503
ssI100
(dp1504
g3
g4
(g8
S'\x00\xea\xbc\xc8o\xab\\>'
p1505
tp1506
Rp1507
sg14
F-1.823941e-05
sg15
F-1.832149e-05
sg16
g4
(g8
S'\xb1{\xc6\x1cU,\xf3\xbe'
p1508
tp1509
Rp1510
ssI1000
(dp1511
g3
g4
(g8
S'1I\xd6\xe8\xe7\x01|>'
p1512
tp1513
Rp1514
sg14
F-0.0002977341
sg15
F-0.0002981766
sg16
g4
(g8
S"<\x92\xa4\xd5'\x843\xbf"
p1515
tp1516
Rp1517
ssI22000
(dp1518
g3
g4
(g8
S'\x9fL\xdccF\xbaT>'
p1519
tp1520
Rp1521
sg14
F-0.006821438
sg15
F-0.006821512
sg16
g4
(g8
S'\xb7sH\xca\xd6\xf0{\xbf'
p1522
tp1523
Rp1524
ssI500
(dp1525
g3
g4
(g8
S'\x82\xc43[\x0b\x92Z>'
p1526
tp1527
Rp1528
sg14
F-0.000142405
sg15
F-0.0001424906
sg16
g4
(g8
S'\xedV\xb7?5\xac"\xbf'
p1529
tp1530
Rp1531
sssI9
(dp1532
I0
(dp1533
g3
g4
(g8
S'\x15\xc2\xda?\x1b\x04`>'
p1534
tp1535
Rp1536
sg14
F1.486222e-05
sg15
F1.475565e-05
sg16
g4
(g8
S'\xf3\x84\xaf\xa8q\n\xef>'
p1537
tp1538
Rp1539
ssI16000
(dp1540
g3
g4
(g8
S'\xe3{h\xb4\xe9\xf2`>'
p1541
tp1542
Rp1543
sg14
F-0.004957306
sg15
F-0.004957408
sg16
g4
(g8
S'\xd9QQ\xc0-Nt\xbf'
p1544
tp1545
Rp1546
ssI900
(dp1547
g3
g4
(g8
S'Vf\xde\xd5\xd4R~>'
p1548
tp1549
Rp1550
sg14
F-0.0002644083
sg15
F-0.0002649
sg16
g4
(g8
S'\x0b\x94.\x9b~U1\xbf'
p1551
tp1552
Rp1553
ssI37000
(dp1554
g3
g4
(g8
S'g\xc1\xf07\xc7\xf7Y>'
p1555
tp1556
Rp1557
sg14
F-0.01148039
sg15
F-0.01148048
sg16
g4
(g8
S'\x0e\xaf\x88\xbc\x0f\x83\x87\xbf'
p1558
tp1559
Rp1560
ssI400
(dp1561
g3
g4
(g8
S'\xcd\xa4j\xe5^M_>'
p1562
tp1563
Rp1564
sg14
F-0.000109378
sg15
F-0.0001094936
sg16
g4
(g8
S'\xb6\xbe\xd4\x7fy\xb0\x1c\xbf'
p1565
tp1566
Rp1567
ssI600
(dp1568
g3
g4
(g8
S'z\xb1\x03b\x96\x86Z>'
p1569
tp1570
Rp1571
sg14
F-0.0001714366
sg15
F-0.0001715441
sg16
g4
(g8
S'\xfcg\xfb\xb1\x1dz&\xbf'
p1572
tp1573
Rp1574
ssI31000
(dp1575
g3
g4
(g8
S'\x95k\x1c\xa9\xda\x85b>'
p1576
tp1577
Rp1578
sg14
F-0.009617181
sg15
F-0.009617313
sg16
g4
(g8
S'iY\x07\xa37\xb2\x83\xbf'
p1579
tp1580
Rp1581
ssI25
(dp1582
g3
g4
(g8
S'\x0e\xc4\xae%M\xb9_>'
p1583
tp1584
Rp1585
sg14
F7.116189e-06
sg15
F7.002807e-06
sg16
g4
(g8
S'\x94J\xbf\x8c\xb3\x94\xdd>'
p1586
tp1587
Rp1588
ssI800
(dp1589
g3
g4
(g8
S'I\xc0\x1e\x04\xd7iy>'
p1590
tp1591
Rp1592
sg14
F-0.000233542
sg15
F-0.0002339537
sg16
g4
(g8
S'\xc0\xef\xea\xb7\x84\x9e.\xbf'
p1593
tp1594
Rp1595
ssI25000
(dp1596
g3
g4
(g8
S'\xf8\xb5^6\xe3}\\>'
p1597
tp1598
Rp1599
sg14
F-0.007753674
sg15
F-0.007753758
sg16
g4
(g8
S'"\xa0|\xaa\\\xc2\x7f\xbf'
p1600
tp1601
Rp1602
ssI300
(dp1603
g3
g4
(g8
S'\xbc@\x07\xed\x171U>'
p1604
tp1605
Rp1606
sg14
F-7.840165e-05
sg15
F-7.8467e-05
sg16
g4
(g8
S'&\x90]\x12\xb6\x8f\x14\xbf'
p1607
tp1608
Rp1609
ssI13000
(dp1610
g3
g4
(g8
S'-a6\x03\xe2\xdaW>'
p1611
tp1612
Rp1613
sg14
F-0.004025088
sg15
F-0.004025162
sg16
g4
(g8
S'[\xc9D\x0c\xa5|p\xbf'
p1614
tp1615
Rp1616
ssI50
(dp1617
g3
g4
(g8
S'\x91q\xc4\x98\xc4\x94d>'
p1618
tp1619
Rp1620
sg14
F-7.338542e-07
sg15
F-8.809118e-07
sg16
g4
(g8
S'=\xf9\xf8\xe9\x86\x88\xab\xbe'
p1621
tp1622
Rp1623
ssI19000
(dp1624
g3
g4
(g8
S'\xfd\xa6\xc2\xa9\x0faa>'
p1625
tp1626
Rp1627
sg14
F-0.005888989
sg15
F-0.005889117
sg16
g4
(g8
S'\xb0\xbb\xc3\xa5\x1f\x1fx\xbf'
p1628
tp1629
Rp1630
ssI700
(dp1631
g3
g4
(g8
S'\xb1\x1f\xcd\xd0\x96vw>'
p1632
tp1633
Rp1634
sg14
F-0.000202545
sg15
F-0.0002029181
sg16
g4
(g8
S'-L\x81\xfa\x06\x8e*\xbf'
p1635
tp1636
Rp1637
ssI40000
(dp1638
g3
g4
(g8
S'y\x99\x88\xaar\xd2Z>'
p1639
tp1640
Rp1641
sg14
F-0.01241183
sg15
F-0.01241193
sg16
g4
(g8
S'\x8a\n\x9d#gk\x89\xbf'
p1642
tp1643
Rp1644
ssI4000
(dp1645
g3
g4
(g8
S'\xb5\x94\xa6=\x8b\x9a\x80>'
p1646
tp1647
Rp1648
sg14
F-0.001228188
sg15
F-0.001228716
sg16
g4
(g8
S'\x99\x9f\x99n\xb8\x1fT\xbf'
p1649
tp1650
Rp1651
ssI200
(dp1652
g3
g4
(g8
S'0g\xeb\x99\x97IY>'
p1653
tp1654
Rp1655
sg14
F-4.72678e-05
sg15
F-4.736674e-05
sg16
g4
(g8
S'\x9f\x80r,\x8a\xd0\x08\xbf'
p1656
tp1657
Rp1658
ssI75
(dp1659
g3
g4
(g8
S'U\xe0{\xee\x94\xad\\>'
p1660
tp1661
Rp1662
sg14
F-8.250419e-06
sg15
F-8.361267e-06
sg16
g4
(g8
S'\xed*\xf5M\xaeo\xe1\xbe'
p1663
tp1664
Rp1665
ssI34000
(dp1666
g3
g4
(g8
S'\xf4\xc4\xdd\xb8\xbddS>'
p1667
tp1668
Rp1669
sg14
F-0.01054858
sg15
F-0.01054864
sg16
g4
(g8
S'y\xee\xd6`\x82\x9a\x85\xbf'
p1670
tp1671
Rp1672
ssI7000
(dp1673
g3
g4
(g8
S'\xc8\xae\xe8\x858\x85k>'
p1674
tp1675
Rp1676
sg14
F-0.002160389
sg15
F-0.00216057
sg16
g4
(g8
S'\x1f:y^\xdb\xb2a\xbf'
p1677
tp1678
Rp1679
ssI28000
(dp1680
g3
g4
(g8
S'3e\x04\xac\xcf.`>'
p1681
tp1682
Rp1683
sg14
F-0.008685206
sg15
F-0.008685305
sg16
g4
(g8
S'fnL\xf9\x94\xc9\x81\xbf'
p1684
tp1685
Rp1686
ssI10000
(dp1687
g3
g4
(g8
S'\x8f\x02[)\x954`>'
p1688
tp1689
Rp1690
sg14
F-0.003092323
sg15
F-0.003092438
sg16
g4
(g8
S'\xea\xad\x9aV2Ui\xbf'
p1691
tp1692
Rp1693
ssI100
(dp1694
g3
g4
(g8
S'\xdc\x01\xe9\xcf_\xcaS>'
p1695
tp1696
Rp1697
sg14
F-1.62557e-05
sg15
F-1.631869e-05
sg16
g4
(g8
S'\xe7m:\xe1"\x16\xf1\xbe'
p1698
tp1699
Rp1700
ssI1000
(dp1701
g3
g4
(g8
S'\xd6{\x1fpy\xb6v>'
p1702
tp1703
Rp1704
sg14
F-0.0002955493
sg15
F-0.0002959319
sg16
g4
(g8
S'\xf9bi\xc9\xe8_3\xbf'
p1705
tp1706
Rp1707
ssI22000
(dp1708
g3
g4
(g8
S'B}\xc4\x8d\xec\x1a_>'
p1709
tp1710
Rp1711
sg14
F-0.00682178
sg15
F-0.006821887
sg16
g4
(g8
S'a\x1f\xdc\x1e6\xf1{\xbf'
p1712
tp1713
Rp1714
ssI500
(dp1715
g3
g4
(g8
S'\x1ap\x9b\xefQ\x9fU>'
p1716
tp1717
Rp1718
sg14
F-0.0001403201
sg15
F-0.0001404067
sg16
g4
(g8
S'\x0b\\\x89\x0bQf"\xbf'
p1719
tp1720
Rp1721
sssI10
(dp1722
I0
(dp1723
g3
g4
(g8
S'\xe7\xb8X\x11\xaf\xb2b>'
p1724
tp1725
Rp1726
sg14
F1.546083e-05
sg15
F1.532933e-05
sg16
g4
(g8
S'B\xe4\x90\xb5\xec&\xf0>'
p1727
tp1728
Rp1729
ssI16000
(dp1730
g3
g4
(g8
S'\xb0\xd6\xdc*W\xcdW>'
p1731
tp1732
Rp1733
sg14
F-0.004952407
sg15
F-0.004952496
sg16
g4
(g8
S'\xd5\x0f\xca\xb3\x01It\xbf'
p1734
tp1735
Rp1736
ssI900
(dp1737
g3
g4
(g8
S"lcs\xae\xa5'\x7f>"
p1738
tp1739
Rp1740
sg14
F-0.0002633934
sg15
F-0.0002638968
sg16
g4
(g8
S'0\x82\xfepAD1\xbf'
p1741
tp1742
Rp1743
ssI37000
(dp1744
g3
g4
(g8
S'\x126h\x81&\x1a`>'
p1745
tp1746
Rp1747
sg14
F-0.01147746
sg15
F-0.01147756
sg16
g4
(g8
S'\xb2B\xcf9\x85\x81\x87\xbf'
p1748
tp1749
Rp1750
ssI400
(dp1751
g3
g4
(g8
S'\xff\xe8\xa61\xd1PY>'
p1752
tp1753
Rp1754
sg14
F-0.0001085113
sg15
F-0.0001086086
sg16
g4
(g8
S'\x84\\\xa4\xfc\xadu\x1c\xbf'
p1755
tp1756
Rp1757
ssI600
(dp1758
g3
g4
(g8
S'\xd6n\x96O~\xaaS>'
p1759
tp1760
Rp1761
sg14
F-0.0001704807
sg15
F-0.000170552
sg16
g4
(g8
S'\xb0\xa8\x96I\x84Y&\xbf'
p1762
tp1763
Rp1764
ssI31000
(dp1765
g3
g4
(g8
S'\xde\xfd\xa6p4d^>'
p1766
tp1767
Rp1768
sg14
F-0.009613775
sg15
F-0.009613875
sg16
g4
(g8
S'>\xcc\xc4\x8ch\xb0\x83\xbf'
p1769
tp1770
Rp1771
ssI25
(dp1772
g3
g4
(g8
S'BF\xac\xf6\xa1\x18X>'
p1773
tp1774
Rp1775
sg14
F8.012056e-06
sg15
F7.93693e-06
sg16
g4
(g8
S'\xcai\xed\xb6F\xb9\xe0>'
p1776
tp1777
Rp1778
ssI800
(dp1779
g3
g4
(g8
S';\xe9\x11X\x94\xb7v>'
p1780
tp1781
Rp1782
sg14
F-0.0002322542
sg15
F-0.0002326046
sg16
g4
(g8
S"@P\xb4'\xab{.\xbf"
p1783
tp1784
Rp1785
ssI25000
(dp1786
g3
g4
(g8
S'\x8fN?\xdc\x13AX>'
p1787
tp1788
Rp1789
sg14
F-0.007748804
sg15
F-0.007748897
sg16
g4
(g8
S'\x11yQ\xc6?\xbd\x7f\xbf'
p1790
tp1791
Rp1792
ssI300
(dp1793
g3
g4
(g8
S'#;$\xbei\xf6Z>'
p1794
tp1795
Rp1796
sg14
F-7.731123e-05
sg15
F-7.739545e-05
sg16
g4
(g8
S'\x93\x0b\x1d\x81.G\x14\xbf'
p1797
tp1798
Rp1799
ssI13000
(dp1800
g3
g4
(g8
S'&\x8e\x85"\xd7\xdeP>'
p1801
tp1802
Rp1803
sg14
F-0.004020989
sg15
F-0.004021056
sg16
g4
(g8
S'\xf51;\xdfWxp\xbf'
p1804
tp1805
Rp1806
ssI50
(dp1807
g3
g4
(g8
S'\x90\x9b4m\x12@c>'
p1808
tp1809
Rp1810
sg14
F1.929753e-07
sg15
F6.642419e-08
sg16
g4
(g8
S'\x17\xaf`i\xff\xed~>'
p1811
tp1812
Rp1813
ssI19000
(dp1814
g3
g4
(g8
S'9\x19\x9bx\xc5\x8e_>'
p1815
tp1816
Rp1817
sg14
F-0.005884461
sg15
F-0.005884566
sg16
g4
(g8
S'\xf9\x03$p_\x1ax\xbf'
p1818
tp1819
Rp1820
ssI700
(dp1821
g3
g4
(g8
S'\xa5\xf5\\4\xe6\xa4{>'
p1822
tp1823
Rp1824
sg14
F-0.0002012102
sg15
F-0.0002016552
sg16
g4
(g8
S'\xba6\xa9\xcb:l*\xbf'
p1825
tp1826
Rp1827
ssI40000
(dp1828
g3
g4
(g8
S'\xad\x9eS|\x1f\x83a>'
p1829
tp1830
Rp1831
sg14
F-0.01240973
sg15
F-0.01240986
sg16
g4
(g8
S'-\x82q\x03Mj\x89\xbf'
p1832
tp1833
Rp1834
ssI4000
(dp1835
g3
g4
(g8
S'\x93g\xce\x82\xcbHS>'
p1836
tp1837
Rp1838
sg14
F-0.001226422
sg15
F-0.001226489
sg16
g4
(g8
S'\x92c\xc6.%\x18T\xbf'
p1839
tp1840
Rp1841
ssI200
(dp1842
g3
g4
(g8
S'\xdd\xd9\x9a\xcd0\xb9X>'
p1843
tp1844
Rp1845
sg14
F-4.630888e-05
sg15
F-4.638286e-05
sg16
g4
(g8
S'\xdb\xb9\x9dD\xd6L\x08\xbf'
p1846
tp1847
Rp1848
ssI75
(dp1849
g3
g4
(g8
S'\xff\xba9\x82\x98\x18Z>'
p1850
tp1851
Rp1852
sg14
F-7.725991e-06
sg15
F-7.825065e-06
sg16
g4
(g8
S'lK\x10P I\xe0\xbe'
p1853
tp1854
Rp1855
ssI34000
(dp1856
g3
g4
(g8
S'C\xb3\x06J\x1c{W>'
p1857
tp1858
Rp1859
sg14
F-0.01054518
sg15
F-0.01054526
sg16
g4
(g8
S'\xcf8bi\xb9\x98\x85\xbf'
p1860
tp1861
Rp1862
ssI7000
(dp1863
g3
g4
(g8
S'}\xfa\xd7\x8bggY>'
p1864
tp1865
Rp1866
sg14
F-0.002157871
sg15
F-0.00215795
sg16
g4
(g8
S'9\xf8A\x9bu\xada\xbf'
p1867
tp1868
Rp1869
ssI28000
(dp1870
g3
g4
(g8
S'\x0c\xe0\xa6b\xed\xe2[>'
p1871
tp1872
Rp1873
sg14
F-0.008681096
sg15
F-0.008681179
sg16
g4
(g8
S'\xb3\xd60\x81k\xc7\x81\xbf'
p1874
tp1875
Rp1876
ssI10000
(dp1877
g3
g4
(g8
S'"\r\x8c\xff*\xbbO>'
p1878
tp1879
Rp1880
sg14
F-0.003089109
sg15
F-0.003089165
sg16
g4
(g8
S'N<5\x0egNi\xbf'
p1881
tp1882
Rp1883
ssI100
(dp1884
g3
g4
(g8
S'9L\x92}\xaceY>'
p1885
tp1886
Rp1887
sg14
F-1.529159e-05
sg15
F-1.537104e-05
sg16
g4
(g8
S'\x1cJC4L\x0f\xf0\xbe'
p1888
tp1889
Rp1890
ssI1000
(dp1891
g3
g4
(g8
S'WA\xc7\xa2\xbaKr>'
p1892
tp1893
Rp1894
sg14
F-0.0002945414
sg15
F-0.0002948474
sg16
g4
(g8
S'\x9aw\xb5\xe7\x8fN3\xbf'
p1895
tp1896
Rp1897
ssI22000
(dp1898
g3
g4
(g8
S'\xb4\x05ymu,Z>'
p1899
tp1900
Rp1901
sg14
F-0.006817153
sg15
F-0.006817245
sg16
g4
(g8
S'\xa3\x8cCH[\xec{\xbf'
p1902
tp1903
Rp1904
ssI500
(dp1905
g3
g4
(g8
S'?p\x80],\x15[>'
p1906
tp1907
Rp1908
sg14
F-0.0001393404
sg15
F-0.0001394314
sg16
g4
(g8
S'?\xbb\xf1?\xe9D"\xbf'
p1909
tp1910
Rp1911
sssI11
(dp1912
I0
(dp1913
g3
g4
(g8
S'v\x13\x92R\xd8\xf4N>'
p1914
tp1915
Rp1916
sg14
F1.514129e-05
sg15
F1.508409e-05
sg16
g4
(g8
S'3\xaa~8W\xb3\xef>'
p1917
tp1918
Rp1919
ssI16000
(dp1920
g3
g4
(g8
S'L\xabg2\x1e\x10P>'
p1921
tp1922
Rp1923
sg14
F-0.004957361
sg15
F-0.004957417
sg16
g4
(g8
S'B\xe8\xb2\xa84Nt\xbf'
p1924
tp1925
Rp1926
ssI900
(dp1927
g3
g4
(g8
S'\x04\x90\x0eo\r\x1e~>'
p1928
tp1929
Rp1930
sg14
F-0.0002639684
sg15
F-0.0002644568
sg16
g4
(g8
S'=\xe5\x87\xef\x0fN1\xbf'
p1931
tp1932
Rp1933
ssI37000
(dp1934
g3
g4
(g8
S'\xcf\xe3F\xcaXVs>'
p1935
tp1936
Rp1937
sg14
F-0.01148118
sg15
F-0.01148143
sg16
g4
(g8
S'\xa7E\r>~\x83\x87\xbf'
p1938
tp1939
Rp1940
ssI400
(dp1941
g3
g4
(g8
S'\xc9\xf4f\xe0\xec\xcaV>'
p1942
tp1943
Rp1944
sg14
F-0.0001087589
sg15
F-0.0001088299
sg16
g4
(g8
S'\xe0.<\x0e\xa8\x85\x1c\xbf'
p1945
tp1946
Rp1947
ssI600
(dp1948
g3
g4
(g8
S'\xea\x1f\xc4\x98\x90\x91[>'
p1949
tp1950
Rp1951
sg14
F-0.0001707755
sg15
F-0.0001708604
sg16
g4
(g8
S'\xd3x\x17\x9c\xbcc&\xbf'
p1952
tp1953
Rp1954
ssI31000
(dp1955
g3
g4
(g8
S'\xebu\xb8g8\x8ci>'
p1956
tp1957
Rp1958
sg14
F-0.009617863
sg15
F-0.009618028
sg16
g4
(g8
S'\xcfuG\xad\x90\xb2\x83\xbf'
p1959
tp1960
Rp1961
ssI25
(dp1962
g3
g4
(g8
S'\xe9\x9b\t\x9f\x8a|]>'
p1963
tp1964
Rp1965
sg14
F7.697509e-06
sg15
F7.618261e-06
sg16
g4
(g8
S')\xbf:\xf2\xb1\t\xe0>'
p1966
tp1967
Rp1968
ssI800
(dp1969
g3
g4
(g8
S'tA\x1d\xffM\xc4o>'
p1970
tp1971
Rp1972
sg14
F-0.0002327297
sg15
F-0.0002330099
sg16
g4
(g8
S'\xfa\xdf\xfd\xb6\x82\x87.\xbf'
p1973
tp1974
Rp1975
ssI25000
(dp1976
g3
g4
(g8
S'\x10X*Z&\x06g>'
p1977
tp1978
Rp1979
sg14
F-0.007753684
sg15
F-0.007753802
sg16
g4
(g8
S'\x93d\xca\xfcd\xc2\x7f\xbf'
p1980
tp1981
Rp1982
ssI300
(dp1983
g3
g4
(g8
S'\xc2v\x01\x16\xfb$P>'
p1984
tp1985
Rp1986
sg14
F-7.769585e-05
sg15
F-7.77478e-05
sg16
g4
(g8
S'!}\xceQ\x13`\x14\xbf'
p1987
tp1988
Rp1989
ssI13000
(dp1990
g3
g4
(g8
S'\xe2\xf3\x1b\xf2\xf3N]>'
p1991
tp1992
Rp1993
sg14
F-0.004025008
sg15
F-0.004025088
sg16
g4
(g8
S'\xc9\x18\xedh\x8e|p\xbf'
p1994
tp1995
Rp1996
ssI50
(dp1997
g3
g4
(g8
S'\xda|\xf3\x8cb?X>'
p1998
tp1999
Rp2000
sg14
F-5.237688e-08
sg15
F-1.543776e-07
sg16
g4
(g8
S'\x1e\x8c\xe2\xe0\xa3\r|\xbe'
p2001
tp2002
Rp2003
ssI19000
(dp2004
g3
g4
(g8
S'W6H\xdf=\xf9^>'
p2005
tp2006
Rp2007
sg14
F-0.005889152
sg15
F-0.005889263
sg16
g4
(g8
S'\xaa4WIG\x1fx\xbf'
p2008
tp2009
Rp2010
ssI700
(dp2011
g3
g4
(g8
S'9\x03\xf4\x93\xec\xab|>'
p2012
tp2013
Rp2014
sg14
F-0.0002015208
sg15
F-0.0002019632
sg16
g4
(g8
S'b\x18\xa1\xea\x1ew*\xbf'
p2015
tp2016
Rp2017
ssI40000
(dp2018
g3
g4
(g8
S'e\xbep\xf6\x8f\ty>'
p2019
tp2020
Rp2021
sg14
F-0.01241277
sg15
F-0.0124131
sg16
g4
(g8
S'\xd9\xc0\xd1\xe8\xeck\x89\xbf'
p2022
tp2023
Rp2024
ssI4000
(dp2025
g3
g4
(g8
S'/2\x88\xfd-\xc1~>'
p2026
tp2027
Rp2028
sg14
F-0.001227758
sg15
F-0.001228262
sg16
g4
(g8
S'\x99\x94\x1fP\xf3\x1dT\xbf'
p2029
tp2030
Rp2031
ssI200
(dp2032
g3
g4
(g8
S'\x9e\xbdbs\xe9\xc4^>'
p2033
tp2034
Rp2035
sg14
F-4.667184e-05
sg15
F-4.678611e-05
sg16
g4
(g8
S'\xd0C\xcd%S\x81\x08\xbf'
p2036
tp2037
Rp2038
ssI75
(dp2039
g3
g4
(g8
S'\xd8\x01\xe4"\xe4\xb8^>'
p2040
tp2041
Rp2042
sg14
F-7.859674e-06
sg15
F-7.976423e-06
sg16
g4
(g8
S'\x1d\x90\xc9#\x8f\x8f\xe0\xbe'
p2043
tp2044
Rp2045
ssI34000
(dp2046
g3
g4
(g8
S'/"$f\x9f\x18p>'
p2047
tp2048
Rp2049
sg14
F-0.01054915
sg15
F-0.0105493
sg16
g4
(g8
S'Qm\xa7\xe4\xd3\x9a\x85\xbf'
p2050
tp2051
Rp2052
ssI7000
(dp2053
g3
g4
(g8
S'\xa1\xa2\n\x84p\xfe[>'
p2054
tp2055
Rp2056
sg14
F-0.002160377
sg15
F-0.002160468
sg16
g4
(g8
S'3\x1d\xae\x19\xc2\xb2a\xbf'
p2057
tp2058
Rp2059
ssI28000
(dp2060
g3
g4
(g8
S'\xb9\xef\x1a"\xc5\x06]>'
p2061
tp2062
Rp2063
sg14
F-0.00868559
sg15
F-0.008685684
sg16
g4
(g8
S'\xdc\xd9\x19Y\xc6\xc9\x81\xbf'
p2064
tp2065
Rp2066
ssI10000
(dp2067
g3
g4
(g8
S'\xb9\xb8\xfa/i(^>'
p2068
tp2069
Rp2070
sg14
F-0.003092792
sg15
F-0.003092881
sg16
g4
(g8
S'\xa3_\x8e$#Vi\xbf'
p2071
tp2072
Rp2073
ssI100
(dp2074
g3
g4
(g8
S"\x8a\x85\xd8#'{T>"
p2075
tp2076
Rp2077
sg14
F-1.562163e-05
sg15
F-1.570976e-05
sg16
g4
(g8
S'T\xe0ot\x15k\xf0\xbe'
p2078
tp2079
Rp2080
ssI1000
(dp2081
g3
g4
(g8
S'\x102\x1c\xf9\xf5\xdc~>'
p2082
tp2083
Rp2084
sg14
F-0.0002949039
sg15
F-0.0002953906
sg16
g4
(g8
S'\xd7\xdd\x05\x02\xc2T3\xbf'
p2085
tp2086
Rp2087
ssI22000
(dp2088
g3
g4
(g8
S';z\xd3<\xa1\xaeR>'
p2089
tp2090
Rp2091
sg14
F-0.006821607
sg15
F-0.006821672
sg16
g4
(g8
S'\xbf\xcb\xf2\x1b\xff\xf0{\xbf'
p2092
tp2093
Rp2094
ssI500
(dp2095
g3
g4
(g8
S'\xdc\x18\xc2}`\xccS>'
p2096
tp2097
Rp2098
sg14
F-0.0001399507
sg15
F-0.0001400175
sg16
g4
(g8
S'{\xc2\x0c\xbc\x0fY"\xbf'
p2099
tp2100
Rp2101
sssI12
(dp2102
I0
(dp2103
g3
g4
(g8
S'5\xe9\xed\xaa\xe6\x98e>'
p2104
tp2105
Rp2106
sg14
F1.346636e-05
sg15
F1.330785e-05
sg16
g4
(g8
S'Q\xd0g\x86\xd4\x04\xec>'
p2107
tp2108
Rp2109
ssI16000
(dp2110
g3
g4
(g8
S'5Afx\xdd\x94W>'
p2111
tp2112
Rp2113
sg14
F-0.00495421
sg15
F-0.004954286
sg16
g4
(g8
S'J?H1\xe6Jt\xbf'
p2114
tp2115
Rp2116
ssI900
(dp2117
g3
g4
(g8
S'o\xa2\x8f\xc9\xc5\xacs>'
p2118
tp2119
Rp2120
sg14
F-0.0002656915
sg15
F-0.0002660228
sg16
g4
(g8
S'\x10$8c\xb3j1\xbf'
p2121
tp2122
Rp2123
ssI37000
(dp2124
g3
g4
(g8
S'\xe6o\xb5\xa8\x1b\xcbj>'
p2125
tp2126
Rp2127
sg14
F-0.01147708
sg15
F-0.01147727
sg16
g4
(g8
S'dv\xc5uT\x81\x87\xbf'
p2128
tp2129
Rp2130
ssI400
(dp2131
g3
g4
(g8
S'U\xee\x9d{Z>Z>'
p2132
tp2133
Rp2134
sg14
F-0.0001104784
sg15
F-0.0001105714
sg16
g4
(g8
S'\xb2\xc25\xd28\xf9\x1c\xbf'
p2135
tp2136
Rp2137
ssI600
(dp2138
g3
g4
(g8
S'\xd6\x1e\x16\x80\x14\\\\>'
p2139
tp2140
Rp2141
sg14
F-0.0001727221
sg15
F-0.0001728136
sg16
g4
(g8
S'\xa2\x15\x05\xaa\xd9\xa4&\xbf'
p2142
tp2143
Rp2144
ssI31000
(dp2145
g3
g4
(g8
S'aTn\xd0\xd2\xa2_>'
p2146
tp2147
Rp2148
sg14
F-0.009612956
sg15
F-0.009613049
sg16
g4
(g8
S'\x07\x9e=\xc4\xf9\xaf\x83\xbf'
p2149
tp2150
Rp2151
ssI25
(dp2152
g3
g4
(g8
S'"\xd8\xd0\xd1-\x02V>'
p2153
tp2154
Rp2155
sg14
F5.606882e-06
sg15
F5.525814e-06
sg16
g4
(g8
S'\xcf5\x80\xd8 ^\xd7>'
p2156
tp2157
Rp2158
ssI800
(dp2159
g3
g4
(g8
S'\xeb\x81\x804q\xecw>'
p2160
tp2161
Rp2162
sg14
F-0.0002342483
sg15
F-0.0002346316
sg16
g4
(g8
S'\x0f\xc0\t\xdf\x11\xbf.\xbf'
p2163
tp2164
Rp2165
ssI25000
(dp2166
g3
g4
(g8
S'\xcb(\x8b\xd1\xb9\xd4T>'
p2167
tp2168
Rp2169
sg14
F-0.007749069
sg15
F-0.007749133
sg16
g4
(g8
S'\xde\xe8\xaf\x15\x85\xbd\x7f\xbf'
p2170
tp2171
Rp2172
ssI300
(dp2173
g3
g4
(g8
S'\xd6\xa3\x98=\xeaHK>'
p2174
tp2175
Rp2176
sg14
F-7.935238e-05
sg15
F-7.939279e-05
sg16
g4
(g8
S'\xdaA\xea\xd0\x9a\xce\x14\xbf'
p2177
tp2178
Rp2179
ssI13000
(dp2180
g3
g4
(g8
S'\xf6\xeeI\x0f\x01\x9aX>'
p2181
tp2182
Rp2183
sg14
F-0.004022724
sg15
F-0.004022808
sg16
g4
(g8
S"\xe5'\xa6*,zp\xbf"
p2184
tp2185
Rp2186
ssI50
(dp2187
g3
g4
(g8
S'\xfd\x80\xec&\xdf"S>'
p2188
tp2189
Rp2190
sg14
F-1.843721e-06
sg15
F-1.910383e-06
sg16
g4
(g8
S'\xe1q78\x87}\xbf\xbe'
p2191
tp2192
Rp2193
ssI19000
(dp2194
g3
g4
(g8
S'\xa3^KO\x9eAX>'
p2195
tp2196
Rp2197
sg14
F-0.005885719
sg15
F-0.005885809
sg16
g4
(g8
S'\xf1\x98_\x1d\xaa\x1bx\xbf'
p2198
tp2199
Rp2200
ssI700
(dp2201
g3
g4
(g8
S'N2=\xe8\xc5\xb8u>'
p2202
tp2203
Rp2204
sg14
F-0.0002031717
sg15
F-0.0002035385
sg16
g4
(g8
S'\x0e\x03\x0f[\x0c\xab*\xbf'
p2205
tp2206
Rp2207
ssI40000
(dp2208
g3
g4
(g8
S'\xd6\x01\x0e\x07\xb1%u>'
p2209
tp2210
Rp2211
sg14
F-0.01240936
sg15
F-0.01240964
sg16
g4
(g8
S'$\x92\x99\xee\x1ej\x89\xbf'
p2212
tp2213
Rp2214
ssI4000
(dp2215
g3
g4
(g8
S'A\x11tR\x0b\xea~>'
p2216
tp2217
Rp2218
sg14
F-0.001228245
sg15
F-0.001228745
sg16
g4
(g8
S'\xfe\x91\x93V\xf0\x1fT\xbf'
p2219
tp2220
Rp2221
ssI200
(dp2222
g3
g4
(g8
S'\xdc)\xcdULuV>'
p2223
tp2224
Rp2225
sg14
F-4.855838e-05
sg15
F-4.863139e-05
sg16
g4
(g8
S'F\xe1+\x01lz\t\xbf'
p2226
tp2227
Rp2228
ssI75
(dp2229
g3
g4
(g8
S'4\xe8\xe2\xdc\xa4\xf5P>'
p2230
tp2231
Rp2232
sg14
F-9.630752e-06
sg15
F-9.693477e-06
sg16
g4
(g8
S'&W\x112FI\xe4\xbe'
p2233
tp2234
Rp2235
ssI34000
(dp2236
g3
g4
(g8
S'\x04\x1fYL\x85\xa7j>'
p2237
tp2238
Rp2239
sg14
F-0.01054454
sg15
F-0.01054472
sg16
g4
(g8
S'\xd9\xc7\xfaji\x98\x85\xbf'
p2240
tp2241
Rp2242
ssI7000
(dp2243
g3
g4
(g8
S'\xf5\xf4\x08;\x1d\xe8X>'
p2244
tp2245
Rp2246
sg14
F-0.002159652
sg15
F-0.002159748
sg16
g4
(g8
S']9\xed\xf9<\xb1a\xbf'
p2247
tp2248
Rp2249
ssI28000
(dp2250
g3
g4
(g8
S'fj\xa7{\x0eUX>'
p2251
tp2252
Rp2253
sg14
F-0.008680954
sg15
F-0.008681043
sg16
g4
(g8
S'\xfe\x82\x17\x1fW\xc7\x81\xbf'
p2254
tp2255
Rp2256
ssI10000
(dp2257
g3
g4
(g8
S'\xac\xd3H\xf0\xf5+V>'
p2258
tp2259
Rp2260
sg14
F-0.003091044
sg15
F-0.003091118
sg16
g4
(g8
S'@\xce\xc4\x86~Ri\xbf'
p2261
tp2262
Rp2263
ssI100
(dp2264
g3
g4
(g8
S'\xb1\xa6\n\xce`\x8eN>'
p2265
tp2266
Rp2267
sg14
F-1.752679e-05
sg15
F-1.758031e-05
sg16
g4
(g8
S'\t\x84\x880\x80g\xf2\xbe'
p2268
tp2269
Rp2270
ssI1000
(dp2271
g3
g4
(g8
S'\xf7n\x8d\xd9S"x>'
p2272
tp2273
Rp2274
sg14
F-0.0002967429
sg15
F-0.0002971298
sg16
g4
(g8
S'\xd7!\x8f\xfc\x8as3\xbf'
p2275
tp2276
Rp2277
ssI22000
(dp2278
g3
g4
(g8
S'\xdbO\x92\xe0\x12UL>'
p2279
tp2280
Rp2281
sg14
F-0.006817731
sg15
F-0.00681778
sg16
g4
(g8
S'\xbd?\xd0\xe2\xee\xec{\xbf'
p2282
tp2283
Rp2284
ssI500
(dp2285
g3
g4
(g8
S'\xe8\xce\x88\xcc\x17\x8eO>'
p2286
tp2287
Rp2288
sg14
F-0.0001416357
sg15
F-0.0001417004
sg16
g4
(g8
S'\xa0\xe82\xd6$\x91"\xbf'
p2289
tp2290
Rp2291
sssI13
(dp2292
I0
(dp2293
g3
g4
(g8
S'dO\xea\xb0KKa>'
p2294
tp2295
Rp2296
sg14
F1.440451e-05
sg15
F1.42897e-05
sg16
g4
(g8
S'\xb7\xc2 C2\x15\xee>'
p2297
tp2298
Rp2299
ssI16000
(dp2300
g3
g4
(g8
S'*e\xfa\xfbF/P>'
p2301
tp2302
Rp2303
sg14
F-0.004956927
sg15
F-0.004956987
sg16
g4
(g8
S'\xf1\xfb\x85\xbe\xbeMt\xbf'
p2304
tp2305
Rp2306
ssI900
(dp2307
g3
g4
(g8
S'\xd31\xf7\x0b-\x0b~>'
p2308
tp2309
Rp2310
sg14
F-0.0002650091
sg15
F-0.0002654805
sg16
g4
(g8
S' \xc3GS\x16_1\xbf'
p2311
tp2312
Rp2313
ssI37000
(dp2314
g3
g4
(g8
S'\xb7\xe8\x18\x17\xf7\x88s>'
p2315
tp2316
Rp2317
sg14
F-0.01147835
sg15
F-0.0114786
sg16
g4
(g8
S'\xcf\x93&6\x03\x82\x87\xbf'
p2318
tp2319
Rp2320
ssI400
(dp2321
g3
g4
(g8
S'6\xfd\x1b\x8f\xd6N_>'
p2322
tp2323
Rp2324
sg14
F-0.0001097421
sg15
F-0.0001098534
sg16
g4
(g8
S'\xd5&\x06G\xf4\xc7\x1c\xbf'
p2325
tp2326
Rp2327
ssI600
(dp2328
g3
g4
(g8
S'\xe2F*\xa1\xbd\x0cY>'
p2329
tp2330
Rp2331
sg14
F-0.0001720237
sg15
F-0.0001721227
sg16
g4
(g8
S'\x0c\xfb\xdfr\xdf\x8d&\xbf'
p2332
tp2333
Rp2334
ssI31000
(dp2335
g3
g4
(g8
S'\xec\xef\xac\xaf=\x84n>'
p2336
tp2337
Rp2338
sg14
F-0.009614841
sg15
F-0.009615027
sg16
g4
(g8
S"Z\x7fQ'\xfc\xb0\x83\xbf"
p2339
tp2340
Rp2341
ssI25
(dp2342
g3
g4
(g8
S'\xadt\xa4\xf8 {U>'
p2343
tp2344
Rp2345
sg14
F6.881587e-06
sg15
F6.808896e-06
sg16
g4
(g8
S'Bm\xf7\x19^\xc2\xdc>'
p2346
tp2347
Rp2348
ssI800
(dp2349
g3
g4
(g8
S'.\x18\xa5\xd8\xa6vs>'
p2350
tp2351
Rp2352
sg14
F-0.0002339755
sg15
F-0.0002342904
sg16
g4
(g8
S'3t\xb4\xa8\x8d\xac.\xbf'
p2353
tp2354
Rp2355
ssI25000
(dp2356
g3
g4
(g8
S'\x85\xf69\x1f\xc2\xc0]>'
p2357
tp2358
Rp2359
sg14
F-0.007751696
sg15
F-0.007751794
sg16
g4
(g8
S'\xa1\x9b\x92\xb5M\xc0\x7f\xbf'
p2360
tp2361
Rp2362
ssI300
(dp2363
g3
g4
(g8
S'\x1cy\xdf3\x95\x8cW>'
p2364
tp2365
Rp2366
sg14
F-7.856771e-05
sg15
F-7.863743e-05
sg16
g4
(g8
S'Q\xa8\xd2u\x06\x9b\x14\xbf'
p2367
tp2368
Rp2369
ssI13000
(dp2370
g3
g4
(g8
S')\r\xde\xe4p\x1bR>'
p2371
tp2372
Rp2373
sg14
F-0.004024815
sg15
F-0.00402488
sg16
g4
(g8
S"R\xe1\x88'Z|p\xbf"
p2374
tp2375
Rp2376
ssI50
(dp2377
g3
g4
(g8
S'\xa4\xfa\xc8F|"S>'
p2378
tp2379
Rp2380
sg14
F-9.471692e-07
sg15
F-1.003451e-06
sg16
g4
(g8
S'\xc9\x94\xdb\xc8?A\xb0\xbe'
p2381
tp2382
Rp2383
ssI19000
(dp2384
g3
g4
(g8
S'\xf7\xef)g\xb5\x1eU>'
p2385
tp2386
Rp2387
sg14
F-0.005888365
sg15
F-0.005888447
sg16
g4
(g8
S'\xef/p\xb2o\x1ex\xbf'
p2388
tp2389
Rp2390
ssI700
(dp2391
g3
g4
(g8
S'\x9a\xc2?\x85\xee\x92n>'
p2392
tp2393
Rp2394
sg14
F-0.0002026531
sg15
F-0.0002028998
sg16
g4
(g8
S'\xcf\xf8\t\x0c\xe8\x96*\xbf'
p2395
tp2396
Rp2397
ssI40000
(dp2398
g3
g4
(g8
S'\xec\x97\xaa\x19\x86\xb2x>'
p2399
tp2400
Rp2401
sg14
F-0.01240998
sg15
F-0.01241029
sg16
g4
(g8
S'nVw\rxj\x89\xbf'
p2402
tp2403
Rp2404
ssI4000
(dp2405
g3
g4
(g8
S'?\xbc9\xc0\x8c\x0bf>'
p2406
tp2407
Rp2408
sg14
F-0.001228289
sg15
F-0.001228467
sg16
g4
(g8
S'\xdd\x86\xffZ\xf8\x1fT\xbf'
p2409
tp2410
Rp2411
ssI200
(dp2412
g3
g4
(g8
S'\xbc\x1bO\xb4\x9a\xf8V>'
p2413
tp2414
Rp2415
sg14
F-4.74352e-05
sg15
F-4.751627e-05
sg16
g4
(g8
S'\xf7\xd5\x9fD\x9d\xe4\x08\xbf'
p2416
tp2417
Rp2418
ssI75
(dp2419
g3
g4
(g8
S'\x8a\xde\xf3\x03\xf08U>'
p2420
tp2421
Rp2422
sg14
F-8.873049e-06
sg15
F-8.956289e-06
sg16
g4
(g8
S'a5\xfe{\xa9\xb1\xe2\xbe'
p2423
tp2424
Rp2425
ssI34000
(dp2426
g3
g4
(g8
S'\xcd\xc4!\xc4+Ap>'
p2427
tp2428
Rp2429
sg14
F-0.01054636
sg15
F-0.01054656
sg16
g4
(g8
S'\x824\x84\xdf]\x99\x85\xbf'
p2430
tp2431
Rp2432
ssI7000
(dp2433
g3
g4
(g8
S'\x82\x0c\xcdGV\xe6R>'
p2434
tp2435
Rp2436
sg14
F-0.002160351
sg15
F-0.002160409
sg16
g4
(g8
S'\x1b\xe4]\x13\xa6\xb2a\xbf'
p2437
tp2438
Rp2439
ssI28000
(dp2440
g3
g4
(g8
S'\xae\xa8i\x97X*c>'
p2441
tp2442
Rp2443
sg14
F-0.008683187
sg15
F-0.008683289
sg16
g4
(g8
S'\xd3JK\xeb\x82\xc8\x81\xbf'
p2444
tp2445
Rp2446
ssI10000
(dp2447
g3
g4
(g8
S'\xbd\x88S<\xf7uV>'
p2448
tp2449
Rp2450
sg14
F-0.003092712
sg15
F-0.003092781
sg16
g4
(g8
S'$^\x02\x1e\xf6Ui\xbf'
p2451
tp2452
Rp2453
ssI100
(dp2454
g3
g4
(g8
S'\xb0,\x03`\xed\x1dW>'
p2455
tp2456
Rp2457
sg14
F-1.669546e-05
sg15
F-1.676809e-05
sg16
g4
(g8
S'\\V~5\n\x8a\xf1\xbe'
p2458
tp2459
Rp2460
ssI1000
(dp2461
g3
g4
(g8
S'4\xdf\x00\x0b16\x7f>'
p2462
tp2463
Rp2464
sg14
F-0.0002962213
sg15
F-0.0002967124
sg16
g4
(g8
S'0\xbf\x99\xd4\xd0j3\xbf'
p2465
tp2466
Rp2467
ssI22000
(dp2468
g3
g4
(g8
S"\xe9'u\x1a\xda\xe9X>"
p2469
tp2470
Rp2471
sg14
F-0.00681994
sg15
F-0.006820025
sg16
g4
(g8
S'v\x95a\x1dB\xef{\xbf'
p2472
tp2473
Rp2474
ssI500
(dp2475
g3
g4
(g8
S'A\xc9\xe7\xbbO\xecP>'
p2476
tp2477
Rp2478
sg14
F-0.0001409361
sg15
F-0.0001409975
sg16
g4
(g8
S'VI\'\xcd\xd1y"\xbf'
p2479
tp2480
Rp2481
sssI14
(dp2482
I0
(dp2483
g3
g4
(g8
S'm\xe6\x84\x17\xc0\x87i>'
p2484
tp2485
Rp2486
sg14
F1.073262e-05
sg15
F1.056466e-05
sg16
g4
(g8
S'J\x00s\xd4\xb3Y\xe6>'
p2487
tp2488
Rp2489
ssI16000
(dp2490
g3
g4
(g8
S'\xe3>\xdfq\x80w_>'
p2491
tp2492
Rp2493
sg14
F-0.004956813
sg15
F-0.004956939
sg16
g4
(g8
S'&\x03<\x81\xa2Mt\xbf'
p2494
tp2495
Rp2496
ssI900
(dp2497
g3
g4
(g8
S'}4\xfb|\xb5hx>'
p2498
tp2499
Rp2500
sg14
F-0.0002688423
sg15
F-0.0002692348
sg16
g4
(g8
S'\xcd\xde\x99\xfb\xd7\x9f1\xbf'
p2501
tp2502
Rp2503
ssI37000
(dp2504
g3
g4
(g8
S'g0 I"=p>'
p2505
tp2506
Rp2507
sg14
F-0.01147958
sg15
F-0.0114798
sg16
g4
(g8
S'\x15H\xbc\x7f\xa1\x82\x87\xbf'
p2508
tp2509
Rp2510
ssI400
(dp2511
g3
g4
(g8
S'\x96\x1e\xba\xf1\x90\x81W>'
p2512
tp2513
Rp2514
sg14
F-0.0001136295
sg15
F-0.0001137094
sg16
g4
(g8
S'\x14\xa7x\x1a_\xcc\x1d\xbf'
p2515
tp2516
Rp2517
ssI600
(dp2518
g3
g4
(g8
S'i\x019\x87\x8e\xf8_>'
p2519
tp2520
Rp2521
sg14
F-0.0001754626
sg15
F-0.0001755642
sg16
g4
(g8
S"\x86xZN\x80\x01'\xbf"
p2522
tp2523
Rp2524
ssI31000
(dp2525
g3
g4
(g8
S'\xba5\xf59\xcdhd>'
p2526
tp2527
Rp2528
sg14
F-0.009616572
sg15
F-0.009616697
sg16
g4
(g8
S'Dh\xce\x03\xe2\xb1\x83\xbf'
p2529
tp2530
Rp2531
ssI25
(dp2532
g3
g4
(g8
S'\x83\xe35\xa1\x99S_>'
p2533
tp2534
Rp2535
sg14
F2.923914e-06
sg15
F2.817397e-06
sg16
g4
(g8
S"\xbfP'\xbeS'\xc8>"
p2536
tp2537
Rp2538
ssI800
(dp2539
g3
g4
(g8
S'\xc5^D\xe7\x12\xc0|>'
p2540
tp2541
Rp2542
sg14
F-0.0002377156
sg15
F-0.0002381874
sg16
g4
(g8
S'+\xc9\xa6\xf7\x19+/\xbf'
p2543
tp2544
Rp2545
ssI25000
(dp2546
g3
g4
(g8
S'\x93\xc2q\xc2\xe3<W>'
p2547
tp2548
Rp2549
sg14
F-0.007752734
sg15
F-0.007752803
sg16
g4
(g8
S'-\xc3\x91\xe6\\\xc1\x7f\xbf'
p2550
tp2551
Rp2552
ssI300
(dp2553
g3
g4
(g8
S'h#~\x94\xa1\xc4T>'
p2554
tp2555
Rp2556
sg14
F-8.253567e-05
sg15
F-8.261019e-05
sg16
g4
(g8
S'Nl\xbd\x97M\xa5\x15\xbf'
p2557
tp2558
Rp2559
ssI13000
(dp2560
g3
g4
(g8
S'E\xa6\xfd\xf7&M\\>'
p2561
tp2562
Rp2563
sg14
F-0.004025709
sg15
F-0.004025795
sg16
g4
(g8
S'i1\xda#L}p\xbf'
p2564
tp2565
Rp2566
ssI50
(dp2567
g3
g4
(g8
S'\x8d\x99=\xfb\xbbNZ>'
p2568
tp2569
Rp2570
sg14
F-4.91534e-06
sg15
F-5.000541e-06
sg16
g4
(g8
S'\xfe\xf2n\x90\xe4\xcf\xd4\xbe'
p2571
tp2572
Rp2573
ssI19000
(dp2574
g3
g4
(g8
S'\xd7\x80\x88\xde\xa6\x83W>'
p2575
tp2576
Rp2577
sg14
F-0.005888769
sg15
F-0.005888861
sg16
g4
(g8
S'\xda6f\xf8\xdd\x1ex\xbf'
p2578
tp2579
Rp2580
ssI700
(dp2581
g3
g4
(g8
S'\x88{\x10\xb2\x10\x16{>'
p2582
tp2583
Rp2584
sg14
F-0.0002064648
sg15
F-0.0002068986
sg16
g4
(g8
S'qJ\xe5\xa8\xdc\x11+\xbf'
p2585
tp2586
Rp2587
ssI40000
(dp2588
g3
g4
(g8
S'\x81\x8eE\xce\xc9\xcbu>'
p2589
tp2590
Rp2591
sg14
F-0.01241127
sg15
F-0.01241156
sg16
g4
(g8
S'.J\x9d="k\x89\xbf'
p2592
tp2593
Rp2594
ssI4000
(dp2595
g3
g4
(g8
S'V\x0b4\x1b"Tt>'
p2596
tp2597
Rp2598
sg14
F-0.001231379
sg15
F-0.001231718
sg16
g4
(g8
S'\xc6\x17Z\xcb\x11-T\xbf'
p2599
tp2600
Rp2601
ssI200
(dp2602
g3
g4
(g8
S'R \xc0\xa9u\xe8]>'
p2603
tp2604
Rp2605
sg14
F-5.13558e-05
sg15
F-5.145604e-05
sg16
g4
(g8
S"K\\'\xfc#\xf5\n\xbf"
p2606
tp2607
Rp2608
ssI75
(dp2609
g3
g4
(g8
S'\xe1esA\xd5\x9c[>'
p2610
tp2611
Rp2612
sg14
F-1.273064e-05
sg15
F-1.282552e-05
sg16
g4
(g8
S'\xaa\xd2?\xf9\xb3\xc6\xea\xbe'
p2613
tp2614
Rp2615
ssI34000
(dp2616
g3
g4
(g8
S'&h\xbf\xc6\xbd\xa0u>'
p2617
tp2618
Rp2619
sg14
F-0.01054763
sg15
F-0.01054787
sg16
g4
(g8
S'-\xb3\xd4\xba\x0b\x9a\x85\xbf'
p2620
tp2621
Rp2622
ssI7000
(dp2623
g3
g4
(g8
S'=\xe37\xddT\x07S>'
p2624
tp2625
Rp2626
sg14
F-0.002162682
sg15
F-0.002162745
sg16
g4
(g8
S'\x99{J\x05\x89\xb7a\xbf'
p2627
tp2628
Rp2629
ssI28000
(dp2630
g3
g4
(g8
S'\x9e\xf0\xd5\xc7\x88\xb1d>'
p2631
tp2632
Rp2633
sg14
F-0.008684477
sg15
F-0.008684603
sg16
g4
(g8
S'\x84\xde\x12\xea2\xc9\x81\xbf'
p2634
tp2635
Rp2636
ssI10000
(dp2637
g3
g4
(g8
S'5\xee\x05\x95\xcau]>'
p2638
tp2639
Rp2640
sg14
F-0.003094391
sg15
F-0.003094498
sg16
g4
(g8
S'cm\x139\x85Yi\xbf'
p2641
tp2642
Rp2643
ssI100
(dp2644
g3
g4
(g8
S'b \x88d\xba\xbaX>'
p2645
tp2646
Rp2647
sg14
F-2.019786e-05
sg15
F-2.030145e-05
sg16
g4
(g8
S'2\xf6\xb7h\x0b>\xf5\xbe'
p2648
tp2649
Rp2650
ssI1000
(dp2651
g3
g4
(g8
S'\xff\x92\xed\xc8\xbfP|>'
p2652
tp2653
Rp2654
sg14
F-0.000299636
sg15
F-0.0003000843
sg16
g4
(g8
S'\xfd\xaa.\x97$\xa43\xbf'
p2655
tp2656
Rp2657
ssI22000
(dp2658
g3
g4
(g8
S'\xc5\x96\xa4\x89\x9e\x9bT>'
p2659
tp2660
Rp2661
sg14
F-0.006820728
sg15
F-0.006820801
sg16
g4
(g8
S'\x9dK&\xaf\x18\xf0{\xbf'
p2662
tp2663
Rp2664
ssI500
(dp2665
g3
g4
(g8
S'M7\xfe\x10#\xa4_>'
p2666
tp2667
Rp2668
sg14
F-0.0001444459
sg15
F-0.0001445706
sg16
g4
(g8
S'eS\xef\x0e\xef\xef"\xbf'
p2669
tp2670
Rp2671
sssI15
(dp2672
I0
(dp2673
g3
g4
(g8
S'\xcd+\x1ckc\x10c>'
p2674
tp2675
Rp2676
sg14
F1.538073e-05
sg15
F1.526483e-05
sg16
g4
(g8
S'\x8f\xbal\xb9\xc0\x15\xf0>'
p2677
tp2678
Rp2679
ssI16000
(dp2680
g3
g4
(g8
S'\x04\xdb\x00g\xa8\x1c^>'
p2681
tp2682
Rp2683
sg14
F-0.004955892
sg15
F-0.004956018
sg16
g4
(g8
S'U\xda\xf3\xcc\xb6Lt\xbf'
p2684
tp2685
Rp2686
ssI900
(dp2687
g3
g4
(g8
S'\x98\x97`F.p\x80>'
p2688
tp2689
Rp2690
sg14
F-0.0002643537
sg15
F-0.0002648839
sg16
g4
(g8
S'y\x822\xa3vT1\xbf'
p2691
tp2692
Rp2693
ssI37000
(dp2694
g3
g4
(g8
S'\x0cM)\x98\x06dh>'
p2695
tp2696
Rp2697
sg14
F-0.01147776
sg15
F-0.01147794
sg16
g4
(g8
S'yRw|\xb3\x81\x87\xbf'
p2698
tp2699
Rp2700
ssI400
(dp2701
g3
g4
(g8
S'\xc2,B\x06\x06*Z>'
p2702
tp2703
Rp2704
sg14
F-0.0001090827
sg15
F-0.0001091622
sg16
g4
(g8
S'\x86\x9b\nR\xf6\x9a\x1c\xbf'
p2705
tp2706
Rp2707
ssI600
(dp2708
g3
g4
(g8
S'\x8f\xd4o3\xf7\x83]>'
p2709
tp2710
Rp2711
sg14
F-0.0001708041
sg15
F-0.0001708884
sg16
g4
(g8
S'6\x86\xe2bkd&\xbf'
p2712
tp2713
Rp2714
ssI31000
(dp2715
g3
g4
(g8
S'x]H\xdf=\xf9^>'
p2716
tp2717
Rp2718
sg14
F-0.009614944
sg15
F-0.009615038
sg16
g4
(g8
S'J\xeb\x89\xd7\x04\xb1\x83\xbf'
p2719
tp2720
Rp2721
ssI25
(dp2722
g3
g4
(g8
S'\xd5@Q\x00\x0e\x03V>'
p2723
tp2724
Rp2725
sg14
F7.631397e-06
sg15
F7.548632e-06
sg16
g4
(g8
S'\xfbM\xd6{}\xd2\xdf>'
p2726
tp2727
Rp2728
ssI800
(dp2729
g3
g4
(g8
S'\xce\xb4\x9d\xb2\xe1\x9dp>'
p2730
tp2731
Rp2732
sg14
F-0.0002332535
sg15
F-0.0002335394
sg16
g4
(g8
S'-Ho\x96\xe7\x94.\xbf'
p2733
tp2734
Rp2735
ssI25000
(dp2736
g3
g4
(g8
S'\xeb9j\x89\xa1\x0bW>'
p2737
tp2738
Rp2739
sg14
F-0.007751385
sg15
F-0.007751478
sg16
g4
(g8
S'\x0e\x95/<\xf6\xbf\x7f\xbf'
p2740
tp2741
Rp2742
ssI300
(dp2743
g3
g4
(g8
S'\x0bg\xe8M\xcc\xf4V>'
p2744
tp2745
Rp2746
sg14
F-7.796878e-05
sg15
F-7.804572e-05
sg16
g4
(g8
S'\xd9\xceJ2\xb8r\x14\xbf'
p2747
tp2748
Rp2749
ssI13000
(dp2750
g3
g4
(g8
S'\x95\xfd#y\xa3\x84^>'
p2751
tp2752
Rp2753
sg14
F-0.00402344
sg15
F-0.004023535
sg16
g4
(g8
S'\n\xc9\x8bH\xefzp\xbf'
p2754
tp2755
Rp2756
ssI50
(dp2757
g3
g4
(g8
S'\x9b\xd5\x8e"\xfa\x08]>'
p2758
tp2759
Rp2760
sg14
F-1.516072e-07
sg15
F-2.32121e-07
sg16
g4
(g8
S'+=\x9e\x9e4%\x8b\xbe'
p2761
tp2762
Rp2763
ssI19000
(dp2764
g3
g4
(g8
S'\xcd\xaa\x03\\\xf6\xefW>'
p2765
tp2766
Rp2767
sg14
F-0.005888113
sg15
F-0.005888217
sg16
g4
(g8
S'\x03\xe9\xe6\x85/\x1ex\xbf'
p2768
tp2769
Rp2770
ssI700
(dp2771
g3
g4
(g8
S'\xc1\x9f(\x97\xa6\x10e>'
p2772
tp2773
Rp2774
sg14
F-0.0002018751
sg15
F-0.0002020113
sg16
g4
(g8
S'\xb9\xa3oa+x*\xbf'
p2775
tp2776
Rp2777
ssI40000
(dp2778
g3
g4
(g8
S'\xa0D\xe9:\xa0\xaar>'
p2779
tp2780
Rp2781
sg14
F-0.01240869
sg15
F-0.01240896
sg16
g4
(g8
S' \xaa\xed~\xc8i\x89\xbf'
p2782
tp2783
Rp2784
ssI4000
(dp2785
g3
g4
(g8
S'+\xed\xdc\xe7\x08\xber>'
p2786
tp2787
Rp2788
sg14
F-0.001227717
sg15
F-0.001228014
sg16
g4
(g8
S'Y\xca\xc4|\x9e\x1dT\xbf'
p2789
tp2790
Rp2791
ssI200
(dp2792
g3
g4
(g8
S'\xcd\x9a=\xd4@m[>'
p2793
tp2794
Rp2795
sg14
F-4.677186e-05
sg15
F-4.686382e-05
sg16
g4
(g8
S'!b\x12\x93\x0b\x8c\x08\xbf'
p2796
tp2797
Rp2798
ssI75
(dp2799
g3
g4
(g8
S'4\x08\xdc\xfa\xe4jU>'
p2800
tp2801
Rp2802
sg14
F-7.631391e-06
sg15
F-7.70207e-06
sg16
g4
(g8
S'\xc6>i\xebW\x14\xe0\xbe'
p2803
tp2804
Rp2805
ssI34000
(dp2806
g3
g4
(g8
S'E\x1b^\xe1V\xfee>'
p2807
tp2808
Rp2809
sg14
F-0.01054661
sg15
F-0.01054674
sg16
g4
(g8
S'\xa7\x1a\x01\x07|\x99\x85\xbf'
p2810
tp2811
Rp2812
ssI7000
(dp2813
g3
g4
(g8
S'b\x90\x9c\x05\x10\xb2]>'
p2814
tp2815
Rp2816
sg14
F-0.002159594
sg15
F-0.002159682
sg16
g4
(g8
S'&+\x01\x1d\x19\xb1a\xbf'
p2817
tp2818
Rp2819
ssI28000
(dp2820
g3
g4
(g8
S'@\xa4\x820\xca\xf8e>'
p2821
tp2822
Rp2823
sg14
F-0.008682868
sg15
F-0.008683007
sg16
g4
(g8
S'\x1a\x18\xb3\x8a\\\xc8\x81\xbf'
p2824
tp2825
Rp2826
ssI10000
(dp2827
g3
g4
(g8
S']q\xdf\xbb\xbd\x08`>'
p2828
tp2829
Rp2830
sg14
F-0.003091336
sg15
F-0.00309143
sg16
g4
(g8
S'\xe4;4\x11\x16Si\xbf'
p2831
tp2832
Rp2833
ssI100
(dp2834
g3
g4
(g8
S'7p\xee\x02#\x87]>'
p2835
tp2836
Rp2837
sg14
F-1.55313e-05
sg15
F-1.562259e-05
sg16
g4
(g8
S'[\xb2 vRV\xf0\xbe'
p2838
tp2839
Rp2840
ssI1000
(dp2841
g3
g4
(g8
S'2r\xb1\xda\x8f\xbb|>'
p2842
tp2843
Rp2844
sg14
F-0.0002951067
sg15
F-0.0002955615
sg16
g4
(g8
S'\xc4\xb2v\xeb\x1eX3\xbf'
p2845
tp2846
Rp2847
ssI22000
(dp2848
g3
g4
(g8
S'\x98H\xd6Z\x93I`>'
p2849
tp2850
Rp2851
sg14
F-0.006819792
sg15
F-0.006819897
sg16
g4
(g8
S'Rd\r] \xef{\xbf'
p2852
tp2853
Rp2854
ssI500
(dp2855
g3
g4
(g8
S'\xf7\x99\x84\xb0}0Z>'
p2856
tp2857
Rp2858
sg14
F-0.0001397833
sg15
F-0.0001398722
sg16
g4
(g8
S'o\xdc\xf6\x1c\xf2S"\xbf'
p2859
tp2860
Rp2861
sssI16
(dp2862
I0
(dp2863
g3
g4
(g8
S'\xe4G\xfb\x1c\xf2\xf4b>'
p2864
tp2865
Rp2866
sg14
F1.313112e-05
sg15
F1.300937e-05
sg16
g4
(g8
S')A\x83pFr\xeb>'
p2867
tp2868
Rp2869
ssI16000
(dp2870
g3
g4
(g8
S'g+[nA\x05a>'
p2871
tp2872
Rp2873
sg14
F-0.004957062
sg15
F-0.00495717
sg16
g4
(g8
S'\x9f\x00\xaaz\xe9Mt\xbf'
p2874
tp2875
Rp2876
ssI900
(dp2877
g3
g4
(g8
S'\xde\xe9\x86\x11`J}>'
p2878
tp2879
Rp2880
sg14
F-0.0002661721
sg15
F-0.0002666297
sg16
g4
(g8
S'\x95B\r\xff\x89r1\xbf'
p2881
tp2882
Rp2883
ssI37000
(dp2884
g3
g4
(g8
S'\x85MN\x89\xc8\xd1i>'
p2885
tp2886
Rp2887
sg14
F-0.01148413
sg15
F-0.01148427
sg16
g4
(g8
S'[\x07\xcc\xe7\x04\x85\x87\xbf'
p2888
tp2889
Rp2890
ssI400
(dp2891
g3
g4
(g8
S'M\x9c|\xec\x98$Q>'
p2892
tp2893
Rp2894
sg14
F-0.0001109877
sg15
F-0.0001110401
sg16
g4
(g8
S'\x8fa\xf2\x97\xe9\x19\x1d\xbf'
p2895
tp2896
Rp2897
ssI600
(dp2898
g3
g4
(g8
S'D\r\x06\x0e\xff\x9eW>'
p2899
tp2900
Rp2901
sg14
F-0.0001731955
sg15
F-0.0001732782
sg16
g4
(g8
S'\xf3\xe1\xc8\x15\xd8\xb4&\xbf'
p2902
tp2903
Rp2904
ssI31000
(dp2905
g3
g4
(g8
S'T=\x10e;{Z>'
p2906
tp2907
Rp2908
sg14
F-0.009619188
sg15
F-0.009619283
sg16
g4
(g8
S'\xd7\x90v%A\xb3\x83\xbf'
p2909
tp2910
Rp2911
ssI25
(dp2912
g3
g4
(g8
S':\xef\x1f\x0b\xddVL>'
p2913
tp2914
Rp2915
sg14
F5.319308e-06
sg15
F5.277178e-06
sg16
g4
(g8
S's(H\xf7\xdd6\xd6>'
p2916
tp2917
Rp2918
ssI800
(dp2919
g3
g4
(g8
S'\xba$\xb2\xc8\x1d2z>'
p2920
tp2921
Rp2922
sg14
F-0.0002350043
sg15
F-0.0002354482
sg16
g4
(g8
S'$\x94*\x88{\xd0.\xbf'
p2923
tp2924
Rp2925
ssI25000
(dp2926
g3
g4
(g8
S'"\n\xa4\xf6Q\x1c\\>'
p2927
tp2928
Rp2929
sg14
F-0.007754358
sg15
F-0.007754443
sg16
g4
(g8
S'\xa20$\xb9\x14\xc3\x7f\xbf'
p2930
tp2931
Rp2932
ssI300
(dp2933
g3
g4
(g8
S"'\xee\x8b\x96\x157b>"
p2934
tp2935
Rp2936
sg14
F-7.964542e-05
sg15
F-7.97648e-05
sg16
g4
(g8
S'\x02\xcb\xc8_E\xe5\x14\xbf'
p2937
tp2938
Rp2939
ssI13000
(dp2940
g3
g4
(g8
S'\x14\xbc\xb2+\xb7\x9fi>'
p2941
tp2942
Rp2943
sg14
F-0.00402501
sg15
F-0.004025157
sg16
g4
(g8
S'8\xabP.\x98|p\xbf'
p2944
tp2945
Rp2946
ssI50
(dp2947
g3
g4
(g8
S'\xcdN>\xcc+\x00Y>'
p2948
tp2949
Rp2950
sg14
F-2.175927e-06
sg15
F-2.253639e-06
sg16
g4
(g8
S'/\x8b\x1b\xba\xe1\x96\xc2\xbe'
p2951
tp2952
Rp2953
ssI19000
(dp2954
g3
g4
(g8
S'\n\xc2Wu$v[>'
p2955
tp2956
Rp2957
sg14
F-0.005889238
sg15
F-0.005889327
sg16
g4
(g8
S'\x0e\x16\x80U]\x1fx\xbf'
p2958
tp2959
Rp2960
ssI700
(dp2961
g3
g4
(g8
S'\xdd;\x0f\x99_Uz>'
p2962
tp2963
Rp2964
sg14
F-0.0002043179
sg15
F-0.0002047366
sg16
g4
(g8
S'F8b\xfc\xdf\xc9*\xbf'
p2965
tp2966
Rp2967
ssI40000
(dp2968
g3
g4
(g8
S'\t\xef&\x1a\x96<l>'
p2969
tp2970
Rp2971
sg14
F-0.01241625
sg15
F-0.01241643
sg16
g4
(g8
S'\x8bp\xc9+\xbam\x89\xbf'
p2972
tp2973
Rp2974
ssI4000
(dp2975
g3
g4
(g8
S'\xee\xa5\xe4\x8f\x9d\xe9`>'
p2976
tp2977
Rp2978
sg14
F-0.001229166
sg15
F-0.001229306
sg16
g4
(g8
S'\xddo\xb0\x1e\xd1#T\xbf'
p2979
tp2980
Rp2981
ssI200
(dp2982
g3
g4
(g8
S'v9{\xcc\xe1\xafW>'
p2983
tp2984
Rp2985
sg14
F-4.91846e-05
sg15
F-4.927134e-05
sg16
g4
(g8
S'\xe7\xd7M\x0bt\xcf\t\xbf'
p2986
tp2987
Rp2988
ssI75
(dp2989
g3
g4
(g8
S'\x15\x10\x8fd\xfe\\Q>'
p2990
tp2991
Rp2992
sg14
F-1.018938e-05
sg15
F-1.024829e-05
sg16
g4
(g8
S'\xb2X\x03\xff\xdcj\xe5\xbe'
p2993
tp2994
Rp2995
ssI34000
(dp2996
g3
g4
(g8
S'\xe8\xfa\xcc\xd6i\xcda>'
p2997
tp2998
Rp2999
sg14
F-0.01055132
sg15
F-0.01055146
sg16
g4
(g8
S'\xc2\xe9\xd8\x9b\xf6\x9b\x85\xbf'
p3000
tp3001
Rp3002
ssI7000
(dp3003
g3
g4
(g8
S'\xb2\x19G\x91.\x96]>'
p3004
tp3005
Rp3006
sg14
F-0.002160899
sg15
F-0.002160994
sg16
g4
(g8
S'\x7f\xfc\xaa;\xd7\xb3a\xbf'
p3007
tp3008
Rp3009
ssI28000
(dp3010
g3
g4
(g8
S'tO\x0fV\xfc`c>'
p3011
tp3012
Rp3013
sg14
F-0.008686558
sg15
F-0.008686676
sg16
g4
(g8
S' \xfc\x96CI\xca\x81\xbf'
p3014
tp3015
Rp3016
ssI10000
(dp3017
g3
g4
(g8
S'\xee\xed\t\xe6\xa80e>'
p3018
tp3019
Rp3020
sg14
F-0.003093038
sg15
F-0.003093191
sg16
g4
(g8
S'S-\xd4\xa5\xbaVi\xbf'
p3021
tp3022
Rp3023
ssI100
(dp3024
g3
g4
(g8
S'\x1aP\x0e\x14F\x15X>'
p3025
tp3026
Rp3027
sg14
F-1.795688e-05
sg15
F-1.803067e-05
sg16
g4
(g8
S'/\x03\xda$\xfd\xdb\xf2\xbe'
p3028
tp3029
Rp3030
ssI1000
(dp3031
g3
g4
(g8
S"H`\x1c\xc0'\xbay>"
p3032
tp3033
Rp3034
sg14
F-0.0002972293
sg15
F-0.0002976546
sg16
g4
(g8
S'\x89h\xb6\x12\xfd{3\xbf'
p3035
tp3036
Rp3037
ssI22000
(dp3038
g3
g4
(g8
S'\x1d\xf6\x1f\xb3\xc2\xb4Y>'
p3039
tp3040
Rp3041
sg14
F-0.006821811
sg15
F-0.0068219
sg16
g4
(g8
S"\xcf\xe7'\x94;\xf1{\xbf"
p3042
tp3043
Rp3044
ssI500
(dp3045
g3
g4
(g8
S'\xbf;\xd0\xe3\xca\xd1Z>'
p3046
tp3047
Rp3048
sg14
F-0.0001421108
sg15
F-0.0001422018
sg16
g4
(g8
S'\x90\x12\\\xa6P\xa2"\xbf'
p3049
tp3050
Rp3051
sss.