(dp0
I1
(dp1
S'slope'
p2
F-7.762987602436991
sS'offset'
p3
F321.78144050786614
ssI2
(dp4
g2
F-7.767092938821483
sg3
F390.7675518513293
ssI3
(dp5
g2
F-7.766674461657764
sg3
F277.61942163327217
ssI4
(dp6
g2
F-7.764393216868119
sg3
F256.6545448250434
ssI5
(dp7
g2
F-7.766597673490513
sg3
F431.6227666895149
ssI6
(dp8
g2
F-7.762134468401894
sg3
F267.15071688987126
ssI7
(dp9
g2
F-7.769079943933602
sg3
F400.6309210782703
ssI8
(dp10
g2
F-7.765459716074872
sg3
F340.44794752021426
ssI9
(dp11
g2
F-7.769284385136978
sg3
F425.11630614966526
ssI10
(dp12
g2
F-7.765985970379296
sg3
F328.56941465955526
ssI11
(dp13
g2
F-7.77225842816633
sg3
F388.935770184982
ssI12
(dp14
g2
F-7.766458805352255
sg3
F383.80148747377893
ssI13
(dp15
g2
F-7.768543201737377
sg3
F368.7468976743176
ssI14
(dp16
g2
F-7.765342863490186
sg3
F342.02132625933604
ssI15
(dp17
g2
F-7.7700108349897565
sg3
F394.874543881736
ssI16
(dp18
g2
F-7.766790418845429
sg3
F324.8455797529201
ss.(dp0
I1
(dp1
I0
(dp2
S'std'
p3
cnumpy.core.multiarray
scalar
p4
(cnumpy
dtype
p5
(S'f8'
p6
I0
I1
tp7
Rp8
(I3
S'<'
p9
NNNI-1
I-1
I0
tp10
bS'\xa6\xfd\xabY\x1a\xbbb>'
p11
tp12
Rp13
sS'max'
p14
F1.295082e-05
sS'min'
p15
F1.285159e-05
sS'mean'
p16
g4
(g8
S'\x1dJ\xf7p>\x0c\xeb>'
p17
tp18
Rp19
ssI16000
(dp20
g3
g4
(g8
S'\xdag\x98\nU\xceR>'
p21
tp22
Rp23
sg14
F-0.004956665
sg15
F-0.004956751
sg16
g4
(g8
S'\x1c\xf8\xe7Y|Mt\xbf'
p24
tp25
Rp26
ssI900
(dp27
g3
g4
(g8
S'\x96p$\xd5KMy>'
p28
tp29
Rp30
sg14
F-0.0002662463
sg15
F-0.000266652
sg16
g4
(g8
S'\xee\xf2g\x00\xd8s1\xbf'
p31
tp32
Rp33
ssI37000
(dp34
g3
g4
(g8
S'\xf0z*\x96Wbi>'
p35
tp36
Rp37
sg14
F-0.01147457
sg15
F-0.01147473
sg16
g4
(g8
S'\xeb\t\xbc\xa9\x03\x80\x87\xbf'
p38
tp39
Rp40
ssI400
(dp41
g3
g4
(g8
S'Z\x90\xaa\xb4A\x12U>'
p42
tp43
Rp44
sg14
F-0.0001109355
sg15
F-0.0001110199
sg16
g4
(g8
S'_%\xed\xb1\xeb\x17\x1d\xbf'
p45
tp46
Rp47
ssI600
(dp48
g3
g4
(g8
S'\x08\x97;\x80C\xf0V>'
p49
tp50
Rp51
sg14
F-0.0001729801
sg15
F-0.0001730514
sg16
g4
(g8
S'\xc3\xeb\xf3\xd6\x9c\xad&\xbf'
p52
tp53
Rp54
ssI31000
(dp55
g3
g4
(g8
S'u\x8bO\xb0&y[>'
p56
tp57
Rp58
sg14
F-0.00961225
sg15
F-0.009612356
sg16
g4
(g8
S'\x85vy3\x9d\xaf\x83\xbf'
p59
tp60
Rp61
ssI25
(dp62
g3
g4
(g8
S'\x16\xb7\x92\x98m\xd0R>'
p63
tp64
Rp65
sg14
F5.420065e-06
sg15
F5.341627e-06
sg16
g4
(g8
S'-\x1a\x18~m\x8f\xd6>'
p66
tp67
Rp68
ssI800
(dp69
g3
g4
(g8
S'\xe2\x81\xf4\xc3F"t>'
p70
tp71
Rp72
sg14
F-0.0002348697
sg15
F-0.0002352066
sg16
g4
(g8
S'\xa7y\x0et\xff\xd1.\xbf'
p73
tp74
Rp75
ssI25000
(dp76
g3
g4
(g8
S'\xa69}\x03\xee\xf7Y>'
p77
tp78
Rp79
sg14
F-0.007750512
sg15
F-0.007750614
sg16
g4
(g8
S'\xdb\xb6\x0bj\x0e\xbf\x7f\xbf'
p80
tp81
Rp82
ssI300
(dp83
g3
g4
(g8
S'\xe8s \xa7\xb6kZ>'
p84
tp85
Rp86
sg14
F-7.986322e-05
sg15
F-7.994749e-05
sg16
g4
(g8
S'\xb4\xed\xcc\x99F\xf1\x14\xbf'
p87
tp88
Rp89
ssI13000
(dp90
g3
g4
(g8
S'\x81\xcev~,\x9f_>'
p91
tp92
Rp93
sg14
F-0.004024825
sg15
F-0.004024928
sg16
g4
(g8
S'\x0c5\xb2\xfeb|p\xbf'
p94
tp95
Rp96
ssI50
(dp97
g3
g4
(g8
S'\xdf\xe7f\xcb\xd1\xc9Y>'
p98
tp99
Rp100
sg14
F-2.329831e-06
sg15
F-2.404028e-06
sg16
g4
(g8
S'\xd5\xa0\x7f47\xd0\xc3\xbe'
p101
tp102
Rp103
ssI19000
(dp104
g3
g4
(g8
S'Ht/\xf0;\xb4`>'
p105
tp106
Rp107
sg14
F-0.005887889
sg15
F-0.005888027
sg16
g4
(g8
S'p\xd8\xd8\xd5\x01\x1ex\xbf'
p108
tp109
Rp110
ssI700
(dp111
g3
g4
(g8
S'.\xf67\x8a+,w>'
p112
tp113
Rp114
sg14
F-0.0002040159
sg15
F-0.000204388
sg16
g4
(g8
S'LyIK\x9b\xbf*\xbf'
p115
tp116
Rp117
ssI40000
(dp118
g3
g4
(g8
S'\xa9N\x16o\x82$h>'
p119
tp120
Rp121
sg14
F-0.01240523
sg15
F-0.01240541
sg16
g4
(g8
S'\x94\xea\x1d\x9a\xefg\x89\xbf'
p122
tp123
Rp124
ssI4000
(dp125
g3
g4
(g8
S'\xc5\xb2\xbc\xb5\xd4Yk>'
p126
tp127
Rp128
sg14
F-0.001229668
sg15
F-0.001229896
sg16
g4
(g8
S'\x19\xe7M\x95\xd2%T\xbf'
p129
tp130
Rp131
ssI200
(dp132
g3
g4
(g8
S'\xc2=D\xc4\xed\xd3W>'
p133
tp134
Rp135
sg14
F-4.875081e-05
sg15
F-4.882972e-05
sg16
g4
(g8
S'\xe0z\xda(6\x94\t\xbf'
p136
tp137
Rp138
ssI75
(dp139
g3
g4
(g8
S'm\x84\xca\xe9,#W>'
p140
tp141
Rp142
sg14
F-1.014e-05
sg15
F-1.021983e-05
sg16
g4
(g8
S'\\j\x17\xc9\x19Z\xe5\xbe'
p143
tp144
Rp145
ssI34000
(dp146
g3
g4
(g8
S'\xfd\xe8"G\xf6\xe8a>'
p147
tp148
Rp149
sg14
F-0.01054323
sg15
F-0.01054334
sg16
g4
(g8
S'\xc4\x80^\x1a\xb6\x97\x85\xbf'
p150
tp151
Rp152
ssI7000
(dp153
g3
g4
(g8
S'<\xcc\xa4\x03C9[>'
p154
tp155
Rp156
sg14
F-0.002161873
sg15
F-0.002161985
sg16
g4
(g8
S'#S\xf2,\xf0\xb5a\xbf'
p157
tp158
Rp159
ssI28000
(dp160
g3
g4
(g8
S'\x8cG\x06K2\xff]>'
p161
tp162
Rp163
sg14
F-0.008681078
sg15
F-0.008681184
sg16
g4
(g8
S'\x1b\xa3\x02Th\xc7\x81\xbf'
p164
tp165
Rp166
ssI10000
(dp167
g3
g4
(g8
S'\xcdl\x9ep\x03kX>'
p168
tp169
Rp170
sg14
F-0.003093266
sg15
F-0.003093359
sg16
g4
(g8
S'fTM\xd0(Wi\xbf'
p171
tp172
Rp173
ssI100
(dp174
g3
g4
(g8
S'b\xa9\xc1\xd4j\x08W>'
p175
tp176
Rp177
sg14
F-1.763419e-05
sg15
F-1.771081e-05
sg16
g4
(g8
S'#\xf5\xeb\xa4\xe7\x89\xf2\xbe'
p178
tp179
Rp180
ssI1000
(dp181
g3
g4
(g8
S't\xac\xe4G\x7f<r>'
p182
tp183
Rp184
sg14
F-0.0002974966
sg15
F-0.0002978045
sg16
g4
(g8
S'\xecR\xca%_\x803\xbf'
p185
tp186
Rp187
ssI22000
(dp188
g3
g4
(g8
S'J\xfc\xcff4\xddY>'
p189
tp190
Rp191
sg14
F-0.006819569
sg15
F-0.006819665
sg16
g4
(g8
S'\xc3\x87x@\xe4\xee{\xbf'
p192
tp193
Rp194
ssI500
(dp195
g3
g4
(g8
S'\xaeBPh(\xbfP>'
p196
tp197
Rp198
sg14
F-0.000142186
sg15
F-0.0001422403
sg16
g4
(g8
S'\xc5\xe0\xacY\xe5\xa3"\xbf'
p199
tp200
Rp201
sssI2
(dp202
I0
(dp203
g3
g4
(g8
S'\xe4\xb7E\x82\x10\xbfj>'
p204
tp205
Rp206
sg14
F1.529426e-05
sg15
F1.512659e-05
sg16
g4
(g8
S'>.\xd5\xf0\x1f\xe7\xef>'
p207
tp208
Rp209
ssI16000
(dp210
g3
g4
(g8
S'\xe4L<*\xb78c>'
p211
tp212
Rp213
sg14
F-0.004954279
sg15
F-0.004954421
sg16
g4
(g8
S'{\xd0r\xe8\x07Kt\xbf'
p214
tp215
Rp216
ssI900
(dp217
g3
g4
(g8
S'P\x1bd\xe2\x0e^x>'
p218
tp219
Rp220
sg14
F-0.0002637769
sg15
F-0.0002641593
sg16
g4
(g8
S'\xd5\x94\x9c\x8fSJ1\xbf'
p221
tp222
Rp223
ssI37000
(dp224
g3
g4
(g8
S'L\xf4\xbfj\xef\xf3a>'
p225
tp226
Rp227
sg14
F-0.01148111
sg15
F-0.01148124
sg16
g4
(g8
S'B}\xd1=m\x83\x87\xbf'
p228
tp229
Rp230
ssI400
(dp231
g3
g4
(g8
S'm\xec\xcb\xadB\xcb]>'
p232
tp233
Rp234
sg14
F-0.0001085527
sg15
F-0.0001086463
sg16
g4
(g8
S'\xfe\xf71\x13\xd8x\x1c\xbf'
p235
tp236
Rp237
ssI600
(dp238
g3
g4
(g8
S'X\x9a\x85>\xc4\xabY>'
p239
tp240
Rp241
sg14
F-0.0001709088
sg15
F-0.0001709957
sg16
g4
(g8
S'\xd0\x8e\x1a\xb3\xb7h&\xbf'
p242
tp243
Rp244
ssI31000
(dp245
g3
g4
(g8
S'e\xa0N\xec\xe5\xa3[>'
p246
tp247
Rp248
sg14
F-0.009616092
sg15
F-0.009616178
sg16
g4
(g8
S';e\x96\x0c\x9f\xb1\x83\xbf'
p249
tp250
Rp251
ssI25
(dp252
g3
g4
(g8
S'j9\xc6D\x04\x96R>'
p253
tp254
Rp255
sg14
F7.511568e-06
sg15
F7.462096e-06
sg16
g4
(g8
S';m\xcc\x9b/k\xdf>'
p256
tp257
Rp258
ssI800
(dp259
g3
g4
(g8
S'\xa8\x97\xd3N\x86\xcdv>'
p260
tp261
Rp262
sg14
F-0.0002322832
sg15
F-0.0002326514
sg16
g4
(g8
S'\xd0A\x8d\xf9m|.\xbf'
p263
tp264
Rp265
ssI25000
(dp266
g3
g4
(g8
S'\x0f\x7f\xc9\x14\xd6\xfaX>'
p267
tp268
Rp269
sg14
F-0.007751529
sg15
F-0.007751604
sg16
g4
(g8
S':CE"\x1a\xc0\x7f\xbf'
p270
tp271
Rp272
ssI300
(dp273
g3
g4
(g8
S'\x90FRf";\\>'
p274
tp275
Rp276
sg14
F-7.755434e-05
sg15
F-7.764587e-05
sg16
g4
(g8
S'B\xa9\xbcI\x98W\x14\xbf'
p277
tp278
Rp279
ssI13000
(dp280
g3
g4
(g8
S'\xbfZ\xf9q\xe4\xf4W>'
p281
tp282
Rp283
sg14
F-0.004022747
sg15
F-0.00402284
sg16
g4
(g8
S'u\x914\xcd0zp\xbf'
p284
tp285
Rp286
ssI50
(dp287
g3
g4
(g8
S',\x90s\xec\xa0\x0fR>'
p288
tp289
Rp290
sg14
F-3.988271e-07
sg15
F-4.734916e-07
sg16
g4
(g8
S'\xec8\x978\xe0\xda\x9d\xbe'
p291
tp292
Rp293
ssI19000
(dp294
g3
g4
(g8
S'\x83\n\r\x02-\x8fK>'
p295
tp296
Rp297
sg14
F-0.005886462
sg15
F-0.005886508
sg16
g4
(g8
S'\xb7i\xfd\x7fm\x1cx\xbf'
p298
tp299
Rp300
ssI700
(dp301
g3
g4
(g8
S'\xe8\x82\x9a\xfb{\xf5x>'
p302
tp303
Rp304
sg14
F-0.000201676
sg15
F-0.0002020897
sg16
g4
(g8
S'LpP\xaeyz*\xbf'
p305
tp306
Rp307
ssI40000
(dp308
g3
g4
(g8
S'\xbdd\x9f|m\xd1e>'
p309
tp310
Rp311
sg14
F-0.0124136
sg15
F-0.01241376
sg16
g4
(g8
S'\xa1A\x01\x14Tl\x89\xbf'
p312
tp313
Rp314
ssI4000
(dp315
g3
g4
(g8
S'\xee\xc2u\xcdy!`>'
p316
tp317
Rp318
sg14
F-0.001226871
sg15
F-0.001226995
sg16
g4
(g8
S'\x8c\x83\x0fL\t\x1aT\xbf'
p319
tp320
Rp321
ssI200
(dp322
g3
g4
(g8
S'\x90j\x81\xdcr\xf8Q>'
p323
tp324
Rp325
sg14
F-4.681745e-05
sg15
F-4.687524e-05
sg16
g4
(g8
S'\x0b\x0ff\xder\x8f\x08\xbf'
p326
tp327
Rp328
ssI75
(dp329
g3
g4
(g8
S'\xd4\xe5\xa6\xa0X\xc0X>'
p330
tp331
Rp332
sg14
F-7.869238e-06
sg15
F-7.952284e-06
sg16
g4
(g8
S'\x01\xafF<?\x93\xe0\xbe'
p333
tp334
Rp335
ssI34000
(dp336
g3
g4
(g8
S'\xdb\xea\xb3\xd46\x97c>'
p337
tp338
Rp339
sg14
F-0.01054821
sg15
F-0.01054834
sg16
g4
(g8
S',\xa1\rTR\x9a\x85\xbf'
p340
tp341
Rp342
ssI7000
(dp343
g3
g4
(g8
S'R\xa0\x90C\x06EX>'
p344
tp345
Rp346
sg14
F-0.002158638
sg15
F-0.002158724
sg16
g4
(g8
S'\x87\x19\x04\x9b\x13\xafa\xbf'
p347
tp348
Rp349
ssI28000
(dp350
g3
g4
(g8
S'\xfb,\xc6]\x0c\x8aR>'
p351
tp352
Rp353
sg14
F-0.008683992
sg15
F-0.00868406
sg16
g4
(g8
S'\xaf\x0e\xde\xa3\xed\xc8\x81\xbf'
p354
tp355
Rp356
ssI10000
(dp357
g3
g4
(g8
S'\xf0\xe2\x07|X\x11L>'
p358
tp359
Rp360
sg14
F-0.003090816
sg15
F-0.003090864
sg16
g4
(g8
S'\x01\xaaPE\xf7Qi\xbf'
p361
tp362
Rp363
ssI100
(dp364
g3
g4
(g8
S'\xdd\xc6\xf1u!\x96`>'
p365
tp366
Rp367
sg14
F-1.578671e-05
sg15
F-1.589397e-05
sg16
g4
(g8
S'[\xc4\xfb3\xf6\x96\xf0\xbe'
p368
tp369
Rp370
ssI1000
(dp371
g3
g4
(g8
S'|\xe3\xfe:\x03\xe3z>'
p372
tp373
Rp374
sg14
F-0.0002949822
sg15
F-0.0002954105
sg16
g4
(g8
S'\x85\x9fv\x87\x03V3\xbf'
p375
tp376
Rp377
ssI22000
(dp378
g3
g4
(g8
S'\t)\xfb\xc0\xd8\x1bT>'
p379
tp380
Rp381
sg14
F-0.006818769
sg15
F-0.006818837
sg16
g4
(g8
S'\xdah\x8by\x08\xee{\xbf'
p382
tp383
Rp384
ssI500
(dp385
g3
g4
(g8
S'\x80\x8b\xeec\xa2\x07R>'
p386
tp387
Rp388
sg14
F-0.0001398618
sg15
F-0.0001399143
sg16
g4
(g8
S'l\x1e\xcb\xd4\xebU"\xbf'
p389
tp390
Rp391
sssI3
(dp392
I0
(dp393
g3
g4
(g8
S'q.\xa7\xed8\xc8b>'
p394
tp395
Rp396
sg14
F1.116841e-05
sg15
F1.106305e-05
sg16
g4
(g8
S'>\xad\xa0\xf8\xbaO\xe7>'
p397
tp398
Rp399
ssI16000
(dp400
g3
g4
(g8
S'\x8e\x1e\xf7F\x11\xd1f>'
p401
tp402
Rp403
sg14
F-0.004960468
sg15
F-0.004960616
sg16
g4
(g8
S'\x01.\xafs\x85Qt\xbf'
p404
tp405
Rp406
ssI900
(dp407
g3
g4
(g8
S'M\x8d\x7f\x8f\x14\x8fo>'
p408
tp409
Rp410
sg14
F-0.0002684942
sg15
F-0.0002687638
sg16
g4
(g8
S'\x9d\x88\xefO\x9a\x991\xbf'
p411
tp412
Rp413
ssI37000
(dp414
g3
g4
(g8
S'\xd38 ]*5S>'
p415
tp416
Rp417
sg14
F-0.01148329
sg15
F-0.01148335
sg16
g4
(g8
S'7\xb6dv\x92\x84\x87\xbf'
p418
tp419
Rp420
ssI400
(dp421
g3
g4
(g8
S'N\xab\x13kG\xfbY>'
p422
tp423
Rp424
sg14
F-0.0001130039
sg15
F-0.0001130801
sg16
g4
(g8
S'\xc5F\x1ajk\xa1\x1d\xbf'
p425
tp426
Rp427
ssI600
(dp428
g3
g4
(g8
S'\x8c\xcbz\xe0\xe9-L>'
p429
tp430
Rp431
sg14
F-0.0001754665
sg15
F-0.000175521
sg16
g4
(g8
S".\x90\xed\xd7\xb6\x00'\xbf"
p432
tp433
Rp434
ssI31000
(dp435
g3
g4
(g8
S'U\xe5\xf8\xc1\xdd\xba\\>'
p436
tp437
Rp438
sg14
F-0.009619307
sg15
F-0.009619401
sg16
g4
(g8
S'\x95\x14\x83\xbdO\xb3\x83\xbf'
p439
tp440
Rp441
ssI25
(dp442
g3
g4
(g8
S'wQ\xfa<\x01\x95`>'
p443
tp444
Rp445
sg14
F3.603576e-06
sg15
F3.505917e-06
sg16
g4
(g8
S'\xec]9Js\xce\xcd>'
p446
tp447
Rp448
ssI800
(dp449
g3
g4
(g8
S'\x96\x12\xe3e\xb0Oy>'
p450
tp451
Rp452
sg14
F-0.0002368857
sg15
F-0.0002372838
sg16
g4
(g8
S'\x9c\x1c^\xfe"\x18/\xbf'
p453
tp454
Rp455
ssI25000
(dp456
g3
g4
(g8
S'U\x0cIBJ\xb2P>'
p457
tp458
Rp459
sg14
F-0.00775598
sg15
F-0.007756038
sg16
g4
(g8
S'u\xd6\xd0\x83\xc6\xc4\x7f\xbf'
p460
tp461
Rp462
ssI300
(dp463
g3
g4
(g8
S'\x8e\xde,\x91\xc9,K>'
p464
tp465
Rp466
sg14
F-8.176984e-05
sg15
F-8.181671e-05
sg16
g4
(g8
S'\x7f\x03E\xd5\xb8p\x15\xbf'
p467
tp468
Rp469
ssI13000
(dp470
g3
g4
(g8
S'\x93GC\x7f\x19\x19\\>'
p471
tp472
Rp473
sg14
F-0.004028001
sg15
F-0.004028108
sg16
g4
(g8
S'n\xc1\xd4\x88\xba\x7fp\xbf'
p474
tp475
Rp476
ssI50
(dp477
g3
g4
(g8
S')\xffM\x8a\x88\xf3F>'
p478
tp479
Rp480
sg14
F-4.280602e-06
sg15
F-4.322354e-06
sg16
g4
(g8
S'\x8d\x0bxW\xa2\x08\xd2\xbe'
p481
tp482
Rp483
ssI19000
(dp484
g3
g4
(g8
S'\x03\x95M\xd4\xed\x9ac>'
p485
tp486
Rp487
sg14
F-0.005892401
sg15
F-0.005892547
sg16
g4
(g8
S'\x1aM\x9d\xb8\xb8"x\xbf'
p488
tp489
Rp490
ssI700
(dp491
g3
g4
(g8
S'\xe8\xaaq;#0w>'
p492
tp493
Rp494
sg14
F-0.0002059135
sg15
F-0.0002062826
sg16
g4
(g8
S'\x93\xf1\xdb\xd5\x06\x08+\xbf'
p495
tp496
Rp497
ssI40000
(dp498
g3
g4
(g8
S'v_w\xe5f\xc8U>'
p499
tp500
Rp501
sg14
F-0.01241495
sg15
F-0.01241502
sg16
g4
(g8
S'T\xba\xd4:\x06m\x89\xbf'
p502
tp503
Rp504
ssI4000
(dp505
g3
g4
(g8
S'\xa0\xb8\xd4^Z\xc8u>'
p506
tp507
Rp508
sg14
F-0.00123201
sg15
F-0.001232394
sg16
g4
(g8
S'\xfd\xf6\\\xfa\xdc/T\xbf'
p509
tp510
Rp511
ssI200
(dp512
g3
g4
(g8
S'\xd9\n\xb2\x95\xe9wS>'
p513
tp514
Rp515
sg14
F-5.069724e-05
sg15
F-5.076493e-05
sg16
g4
(g8
S'\xb5yp\xd0\xb8\x9a\n\xbf'
p516
tp517
Rp518
ssI75
(dp519
g3
g4
(g8
S'<-\x8e\x02\xcf\xb5X>'
p520
tp521
Rp522
sg14
F-1.218374e-05
sg15
F-1.226494e-05
sg16
g4
(g8
S'If\xf5\xbc$\xa7\xe9\xbe'
p523
tp524
Rp525
ssI34000
(dp526
g3
g4
(g8
S'\x05\x0b$\xef8\xebT>'
p527
tp528
Rp529
sg14
F-0.01055128
sg15
F-0.01055134
sg16
g4
(g8
S'+7\xf2\xf1\xec\x9b\x85\xbf'
p530
tp531
Rp532
ssI7000
(dp533
g3
g4
(g8
S'i\x99\xac\xb9^\x89i>'
p534
tp535
Rp536
sg14
F-0.002163839
sg15
F-0.002164042
sg16
g4
(g8
S'\x1bs\x14\xa7+\xbaa\xbf'
p537
tp538
Rp539
ssI28000
(dp540
g3
g4
(g8
S"\xe8\xc3'v\x9b\xb8[>"
p541
tp542
Rp543
sg14
F-0.008687425
sg15
F-0.008687519
sg16
g4
(g8
S'Q\x92\xe0\xd3\xbd\xca\x81\xbf'
p544
tp545
Rp546
ssI10000
(dp547
g3
g4
(g8
S')[\xcc#\xc0\x13e>'
p548
tp549
Rp550
sg14
F-0.003095992
sg15
F-0.003096152
sg16
g4
(g8
S'1s\x9c\x07\xed\\i\xbf'
p551
tp552
Rp553
ssI100
(dp554
g3
g4
(g8
S'\x1c\xe3P\x9c\xde\xf5T>'
p555
tp556
Rp557
sg14
F-2.005509e-05
sg15
F-2.0137e-05
sg16
g4
(g8
S'\x1e\x05\xf5s\xab\x16\xf5\xbe'
p558
tp559
Rp560
ssI1000
(dp561
g3
g4
(g8
S'\x86\xde\xc6\x07\x81zt>'
p562
tp563
Rp564
sg14
F-0.0002996167
sg15
F-0.0002999562
sg16
g4
(g8
S'\x12\x89\xe3\xd0\xe0\xa33\xbf'
p565
tp566
Rp567
ssI22000
(dp568
g3
g4
(g8
S'\x06\xa6\x9a\xa7\xe6\x84S>'
p569
tp570
Rp571
sg14
F-0.006824154
sg15
F-0.006824212
sg16
g4
(g8
S'\xef\x82\xa6\x7f\xad\xf3{\xbf'
p572
tp573
Rp574
ssI500
(dp575
g3
g4
(g8
S'\xa6&Dv\x94\xe9Y>'
p576
tp577
Rp578
sg14
F-0.0001440688
sg15
F-0.0001441595
sg16
g4
(g8
S'\x0b\xe0\xf8\r\x03\xe4"\xbf'
p579
tp580
Rp581
sssI4
(dp582
I0
(dp583
g3
g4
(g8
S'\x8dS\xe04~ka>'
p584
tp585
Rp586
sg14
F1.003587e-05
sg15
F9.919088e-06
sg16
g4
(g8
S'S"V1\x9c\xe6\xe4>'
p587
tp588
Rp589
ssI16000
(dp590
g3
g4
(g8
S'\xc0\xe4:9+\xeeT>'
p591
tp592
Rp593
sg14
F-0.004958127
sg15
F-0.004958203
sg16
g4
(g8
S'\x90\xa5\r\x13\x06Ot\xbf'
p594
tp595
Rp596
ssI900
(dp597
g3
g4
(g8
S'~\x89z\x8c\x8f\x19v>'
p598
tp599
Rp600
sg14
F-0.000268789
sg15
F-0.0002691392
sg16
g4
(g8
S'I\x1c\xc2\\\x8d\xa21\xbf'
p601
tp602
Rp603
ssI37000
(dp604
g3
g4
(g8
S'h5b\xfa\xc8\x98v>'
p605
tp606
Rp607
sg14
F-0.01148272
sg15
F-0.01148302
sg16
g4
(g8
S'\xd6x\xa3jK\x84\x87\xbf'
p608
tp609
Rp610
ssI400
(dp611
g3
g4
(g8
S'\n*t%2\xbfV>'
p612
tp613
Rp614
sg14
F-0.0001139014
sg15
F-0.0001139857
sg16
g4
(g8
S'\xff\xc9\xc8\xce\x00\xdf\x1d\xbf'
p615
tp616
Rp617
ssI600
(dp618
g3
g4
(g8
S'\x88\xfc\xe8\x929AT>'
p619
tp620
Rp621
sg14
F-0.0001761486
sg15
F-0.0001762116
sg16
g4
(g8
S"\x07\x19p\xa1a\x17'\xbf"
p622
tp623
Rp624
ssI31000
(dp625
g3
g4
(g8
S"<\xe9'\xe8^\xf7j>"
p626
tp627
Rp628
sg14
F-0.009619107
sg15
F-0.009619251
sg16
g4
(g8
S'\x0e\xf8j/6\xb3\x83\xbf'
p629
tp630
Rp631
ssI25
(dp632
g3
g4
(g8
S'\xf6\x92\xca\x8f\x86\x9e^>'
p633
tp634
Rp635
sg14
F2.247577e-06
sg15
F2.149014e-06
sg16
g4
(g8
S'\x93M\xad\xa5Zi\xc2>'
p636
tp637
Rp638
ssI800
(dp639
g3
g4
(g8
S'\x0eZ \xb6\x00\x13s>'
p640
tp641
Rp642
sg14
F-0.0002377988
sg15
F-0.0002380997
sg16
g4
(g8
S'\x92\xca\xd3\xc9\x89,/\xbf'
p643
tp644
Rp645
ssI25000
(dp646
g3
g4
(g8
S'g\xbe`\xc3\x8c\xc6e>'
p647
tp648
Rp649
sg14
F-0.0077547
sg15
F-0.007754819
sg16
g4
(g8
S'd\x1d$Ds\xc3\x7f\xbf'
p650
tp651
Rp652
ssI300
(dp653
g3
g4
(g8
S'\xdfQWg\x11-W>'
p654
tp655
Rp656
sg14
F-8.269637e-05
sg15
F-8.27887e-05
sg16
g4
(g8
S'\x94K7\xbb\x10\xb1\x15\xbf'
p657
tp658
Rp659
ssI13000
(dp660
g3
g4
(g8
S"\x89D'\x18\x85}X>"
p661
tp662
Rp663
sg14
F-0.004026783
sg15
F-0.00402687
sg16
g4
(g8
S'\xef\xf0\xf6\xa2l~p\xbf'
p664
tp665
Rp666
ssI50
(dp667
g3
g4
(g8
S'l=\x8bw\x8a\xa2K>'
p668
tp669
Rp670
sg14
F-5.351821e-06
sg15
F-5.398458e-06
sg16
g4
(g8
S'w\xae\xf8`+\x8a\xd6\xbe'
p671
tp672
Rp673
ssI19000
(dp674
g3
g4
(g8
S'\xa0\xb8j1i&X>'
p675
tp676
Rp677
sg14
F-0.00588997
sg15
F-0.005890056
sg16
g4
(g8
S'\x9d\xe9\x02\xb7\x1e x\xbf'
p678
tp679
Rp680
ssI700
(dp681
g3
g4
(g8
S'\x05\x07p\xf5\x19\xc3~>'
p682
tp683
Rp684
sg14
F-0.0002068022
sg15
F-0.0002072782
sg16
g4
(g8
S'#\x02m\x04\xdf\x1c+\xbf'
p685
tp686
Rp687
ssI40000
(dp688
g3
g4
(g8
S'1E\x9e\xeb\\n~>'
p689
tp690
Rp691
sg14
F-0.01241523
sg15
F-0.01241565
sg16
g4
(g8
S'\x04\xd6fq7m\x89\xbf'
p692
tp693
Rp694
ssI4000
(dp695
g3
g4
(g8
S'\x97\x07\xf4`\xb2\xa7y>'
p696
tp697
Rp698
sg14
F-0.001231487
sg15
F-0.001231917
sg16
g4
(g8
S'\x1e\x15h\x06\x9e-T\xbf'
p699
tp700
Rp701
ssI200
(dp702
g3
g4
(g8
S'*\xaaO`\t\xd8I>'
p703
tp704
Rp705
sg14
F-5.200599e-05
sg15
F-5.204541e-05
sg16
g4
(g8
S'\xd6\x12\x8f\xfb\xe4F\x0b\xbf'
p706
tp707
Rp708
ssI75
(dp709
g3
g4
(g8
S'o\x98\x03\xb1\xe3\xbcT>'
p710
tp711
Rp712
sg14
F-1.307458e-05
sg15
F-1.313525e-05
sg16
g4
(g8
S'@\x01\xd4\xe0\x90\x7f\xeb\xbe'
p713
tp714
Rp715
ssI34000
(dp716
g3
g4
(g8
S'\xf3\xc3\x00y\xf4/q>'
p717
tp718
Rp719
sg14
F-0.01055055
sg15
F-0.01055077
sg16
g4
(g8
S'\xa1\x13\xa4I\x93\x9b\x85\xbf'
p720
tp721
Rp722
ssI7000
(dp723
g3
g4
(g8
S'\x06&\xc3z\x88{]>'
p724
tp725
Rp726
sg14
F-0.002162899
sg15
F-0.002162989
sg16
g4
(g8
S'7\x0cB]\x07\xb8a\xbf'
p727
tp728
Rp729
ssI28000
(dp730
g3
g4
(g8
S'\xac\xabXD\x0c\x84b>'
p731
tp732
Rp733
sg14
F-0.00868703
sg15
F-0.008687156
sg16
g4
(g8
S'\xae%\x82\x8a\x87\xca\x81\xbf'
p734
tp735
Rp736
ssI10000
(dp737
g3
g4
(g8
S'\xcdy\x9c\xa24\x80`>'
p738
tp739
Rp740
sg14
F-0.003095014
sg15
F-0.003095114
sg16
g4
(g8
S'S\x1f:\x15\xd2Zi\xbf'
p741
tp742
Rp743
ssI100
(dp744
g3
g4
(g8
S'\xfe\xe3M\x0c\xb1\xbbU>'
p745
tp746
Rp747
sg14
F-2.097032e-05
sg15
F-2.102554e-05
sg16
g4
(g8
S'\x1c\xf7\x14\x16\x92\x03\xf6\xbe'
p748
tp749
Rp750
ssI1000
(dp751
g3
g4
(g8
S'\x1eQ\xc3\xa2\xd97t>'
p752
tp753
Rp754
sg14
F-0.0002999629
sg15
F-0.0003002793
sg16
g4
(g8
S'\x8a1\xee\x16!\xad3\xbf'
p755
tp756
Rp757
ssI22000
(dp758
g3
g4
(g8
S'}[G\x11\xe8\xa0V>'
p759
tp760
Rp761
sg14
F-0.00682222
sg15
F-0.006822299
sg16
g4
(g8
S'\xaa\xdd\x1c\x9f\xaa\xf1{\xbf'
p762
tp763
Rp764
ssI500
(dp765
g3
g4
(g8
S'\xd7\xd8#\xa1\x8e\xeaV>'
p766
tp767
Rp768
sg14
F-0.0001450598
sg15
F-0.0001451233
sg16
g4
(g8
S'\xcc\xf4\xb2\xe6^\x04#\xbf'
p769
tp770
Rp771
sssI5
(dp772
I0
(dp773
g3
g4
(g8
S'7\xb2"\xceO$Y>'
p774
tp775
Rp776
sg14
F1.721037e-05
sg15
F1.712863e-05
sg16
g4
(g8
S'\x82h\xc1\xb9\xbb\x03\xf2>'
p777
tp778
Rp779
ssI16000
(dp780
g3
g4
(g8
S'\n\xab)\x04\xf0\xde`>'
p781
tp782
Rp783
sg14
F-0.004954693
sg15
F-0.004954803
sg16
g4
(g8
S'Q\xfe\xce4qKt\xbf'
p784
tp785
Rp786
ssI900
(dp787
g3
g4
(g8
S'A\xb1\xb1\xcb\x93Rp>'
p788
tp789
Rp790
sg14
F-0.0002619523
sg15
F-0.0002622092
sg16
g4
(g8
S'2WC\x00\x86+1\xbf'
p791
tp792
Rp793
ssI37000
(dp794
g3
g4
(g8
S'$I*X\xb9\x8ad>'
p795
tp796
Rp797
sg14
F-0.01147553
sg15
F-0.01147567
sg16
g4
(g8
S'k)\xdc\xcf\x82\x80\x87\xbf'
p798
tp799
Rp800
ssI400
(dp801
g3
g4
(g8
S'\xac\xf2\x80\xedy\xf1W>'
p802
tp803
Rp804
sg14
F-0.0001066916
sg15
F-0.0001067751
sg16
g4
(g8
S'\xa9\xbc`\xb9\xf1\xfa\x1b\xbf'
p805
tp806
Rp807
ssI600
(dp808
g3
g4
(g8
S'd\xd7\x1a\xc8m\xc3e>'
p809
tp810
Rp811
sg14
F-0.0001690537
sg15
F-0.0001692075
sg16
g4
(g8
S'I;T\xf2\xff*&\xbf'
p812
tp813
Rp814
ssI31000
(dp815
g3
g4
(g8
S'\xb9\xe8\xb5/\xb7/Z>'
p816
tp817
Rp818
sg14
F-0.009613183
sg15
F-0.009613261
sg16
g4
(g8
S'\n{-\xbc\x18\xb0\x83\xbf'
p819
tp820
Rp821
ssI25
(dp822
g3
g4
(g8
S'yx\xac"N\xcaS>'
p823
tp824
Rp825
sg14
F9.363381e-06
sg15
F9.298547e-06
sg16
g4
(g8
S'!\x9c\xafI\x07\x90\xe3>'
p826
tp827
Rp828
ssI800
(dp829
g3
g4
(g8
S'\x10]\xe6D\x06Qu>'
p830
tp831
Rp832
sg14
F-0.0002306825
sg15
F-0.0002310341
sg16
g4
(g8
S'\xe5$@\xe1\x8e>.\xbf'
p833
tp834
Rp835
ssI25000
(dp836
g3
g4
(g8
S'u\xf1\xcb\xa8\xc1\x1c`>'
p837
tp838
Rp839
sg14
F-0.007749905
sg15
F-0.007750016
sg16
g4
(g8
S'a\xcfror\xbe\x7f\xbf'
p840
tp841
Rp842
ssI300
(dp843
g3
g4
(g8
S'\xe4\xa9\x0e\x9e\xa3\xdbR>'
p844
tp845
Rp846
sg14
F-7.536101e-05
sg15
F-7.542675e-05
sg16
g4
(g8
S'l~\x06\xa2\xe4\xc3\x13\xbf'
p847
tp848
Rp849
ssI13000
(dp850
g3
g4
(g8
S'\xfaR\xb1\xea\x92\xb7b>'
p851
tp852
Rp853
sg14
F-0.004022664
sg15
F-0.004022794
sg16
g4
(g8
S"\xba\xbe\xca>'zp\xbf"
p854
tp855
Rp856
ssI50
(dp857
g3
g4
(g8
S'\xf6a<\x18\n\xb7U>'
p858
tp859
Rp860
sg14
F1.838816e-06
sg15
F1.752135e-06
sg16
g4
(g8
S'n\x8b#H\xe9\xf8\xbd>'
p861
tp862
Rp863
ssI19000
(dp864
g3
g4
(g8
S'\xec\xb1]/\xee?\\>'
p865
tp866
Rp867
sg14
F-0.005886112
sg15
F-0.005886197
sg16
g4
(g8
S'\x83\xb4\xa1\n\x15\x1cx\xbf'
p868
tp869
Rp870
ssI700
(dp871
g3
g4
(g8
S'\xf8\x88+\x18j\xf0Z>'
p872
tp873
Rp874
sg14
F-0.0001997608
sg15
F-0.0001998359
sg16
g4
(g8
S'\xf5\xae\xaa\x84\x190*\xbf'
p875
tp876
Rp877
ssI40000
(dp878
g3
g4
(g8
S'\x95@\xd4\xccW\xd9g>'
p879
tp880
Rp881
sg14
F-0.01240722
sg15
F-0.01240739
sg16
g4
(g8
S'\xb4\x94\xa8\xee\xfch\x89\xbf'
p882
tp883
Rp884
ssI4000
(dp885
g3
g4
(g8
S'/\x8c\xae\xea\xb4F\\>'
p886
tp887
Rp888
sg14
F-0.001225496
sg15
F-0.001225589
sg16
g4
(g8
S'[}\xfaiJ\x14T\xbf'
p889
tp890
Rp891
ssI200
(dp892
g3
g4
(g8
S'\xd6\x81\xa6#~oR>'
p893
tp894
Rp895
sg14
F-4.442434e-05
sg15
F-4.449343e-05
sg16
g4
(g8
S'\x17\x12#\xf4mM\x07\xbf'
p896
tp897
Rp898
ssI75
(dp899
g3
g4
(g8
S'\xf8o\x18H\x04JP>'
p900
tp901
Rp902
sg14
F-6.036794e-06
sg15
F-6.095591e-06
sg16
g4
(g8
S'\xa9u\x84\xc8Cp\xd9\xbe'
p903
tp904
Rp905
ssI34000
(dp906
g3
g4
(g8
S'\t-\x02\xf1\x13V^>'
p907
tp908
Rp909
sg14
F-0.01054399
sg15
F-0.0105441
sg16
g4
(g8
S'R\x9e\x1f\x99\x1f\x98\x85\xbf'
p910
tp911
Rp912
ssI7000
(dp913
g3
g4
(g8
S'+\x1b!-\xa8\xbc]>'
p914
tp915
Rp916
sg14
F-0.002157628
sg15
F-0.002157724
sg16
g4
(g8
S'LY\x1e\x92\x01\xada\xbf'
p917
tp918
Rp919
ssI28000
(dp920
g3
g4
(g8
S'\xa6-\x88\xa68EZ>'
p921
tp922
Rp923
sg14
F-0.008681482
sg15
F-0.008681559
sg16
g4
(g8
S'd\xf0C&\x9e\xc7\x81\xbf'
p924
tp925
Rp926
ssI10000
(dp927
g3
g4
(g8
S'.\n\x0b\xbc\x89\xa4c>'
p928
tp929
Rp930
sg14
F-0.003090065
sg15
F-0.003090197
sg16
g4
(g8
S'\x9e\x07\x8f(\x88Pi\xbf'
p931
tp932
Rp933
ssI100
(dp934
g3
g4
(g8
S'sl\xc5;\xf6\x89T>'
p935
tp936
Rp937
sg14
F-1.379114e-05
sg15
F-1.386213e-05
sg16
g4
(g8
S'\xcd\x0c\xde\x8b\x10\xff\xec\xbe'
p938
tp939
Rp940
ssI1000
(dp941
g3
g4
(g8
S'(\xb1\xcf\x96\x01\x08y>'
p942
tp943
Rp944
sg14
F-0.0002931462
sg15
F-0.0002935587
sg16
g4
(g8
S'\xf9\xf6\x05\xfe\x8273\xbf'
p945
tp946
Rp947
ssI22000
(dp948
g3
g4
(g8
S'\x8b/I\xec=!V>'
p949
tp950
Rp951
sg14
F-0.006818212
sg15
F-0.006818292
sg16
g4
(g8
S'\xef\x82\xae\xe4v\xed{\xbf'
p952
tp953
Rp954
ssI500
(dp955
g3
g4
(g8
S'#\xfdB\xb8\x8d\xe0S>'
p956
tp957
Rp958
sg14
F-0.0001378927
sg15
F-0.000137957
sg16
g4
(g8
S'\x1d\x94Y\t\t\x14"\xbf'
p959
tp960
Rp961
sssI6
(dp962
I0
(dp963
g3
g4
(g8
S'.K\xa5LH\x9dd>'
p964
tp965
Rp966
sg14
F1.048114e-05
sg15
F1.033872e-05
sg16
g4
(g8
S'\x0b\xcfK\xc2\xf5\xcf\xe5>'
p967
tp968
Rp969
ssI16000
(dp970
g3
g4
(g8
S'\n;\xa9\xc4(\xdeU>'
p971
tp972
Rp973
sg14
F-0.004956718
sg15
F-0.00495679
sg16
g4
(g8
S'"\xa5\x04\x06\x8aMt\xbf'
p974
tp975
Rp976
ssI900
(dp977
g3
g4
(g8
S'\n\n\x9b \x044n>'
p978
tp979
Rp980
sg14
F-0.0002683332
sg15
F-0.0002685815
sg16
g4
(g8
S'*-j\xc5#\x991\xbf'
p981
tp982
Rp983
ssI37000
(dp984
g3
g4
(g8
S'\x13\xbb\x8c\xd0[\xcbV>'
p985
tp986
Rp987
sg14
F-0.01147736
sg15
F-0.01147743
sg16
g4
(g8
S'\xcf\xb7\xb4\x03v\x81\x87\xbf'
p988
tp989
Rp990
ssI400
(dp991
g3
g4
(g8
S'\x98\xfe\xafJ\x96\xc4Z>'
p992
tp993
Rp994
sg14
F-0.000113393
sg15
F-0.0001134786
sg16
g4
(g8
S'\xcdK\xf7?\x0f\xbc\x1d\xbf'
p995
tp996
Rp997
ssI600
(dp998
g3
g4
(g8
S'?5\xe3\x91\xd76`>'
p999
tp1000
Rp1001
sg14
F-0.0001756204
sg15
F-0.0001757327
sg16
g4
(g8
S"4\xaf\xbdA\x1c\x07'\xbf"
p1002
tp1003
Rp1004
ssI31000
(dp1005
g3
g4
(g8
S"\xce\x08d'I\xafW>"
p1006
tp1007
Rp1008
sg14
F-0.00961421
sg15
F-0.009614282
sg16
g4
(g8
S'{lQ\x03\xa2\xb0\x83\xbf'
p1009
tp1010
Rp1011
ssI25
(dp1012
g3
g4
(g8
S'0\x03\xef\x86\xd8\xc2V>'
p1013
tp1014
Rp1015
sg14
F2.707436e-06
sg15
F2.634952e-06
sg16
g4
(g8
S'\xbe\xa5\x10\xf2Q\\\xc6>'
p1016
tp1017
Rp1018
ssI800
(dp1019
g3
g4
(g8
S'B\x11\xa1\xab\xb4\x85t>'
p1020
tp1021
Rp1022
sg14
F-0.0002375023
sg15
F-0.0002378251
sg16
g4
(g8
S'\\\x9b\xde\xf4\x95"/\xbf'
p1023
tp1024
Rp1025
ssI25000
(dp1026
g3
g4
(g8
S'\xa0G/\x1b\xd6\xe5Z>'
p1027
tp1028
Rp1029
sg14
F-0.007751327
sg15
F-0.007751418
sg16
g4
(g8
S'S\xa9\xd8\xa1\xe7\xbf\x7f\xbf'
p1030
tp1031
Rp1032
ssI300
(dp1033
g3
g4
(g8
S"'X\xd6\xc4\xb2\x97R>"
p1034
tp1035
Rp1036
sg14
F-8.23059e-05
sg15
F-8.236339e-05
sg16
g4
(g8
S'KNB}\xf6\x94\x15\xbf'
p1037
tp1038
Rp1039
ssI13000
(dp1040
g3
g4
(g8
S'\xdc+\xe3\x0c\x83\x9eU>'
p1041
tp1042
Rp1043
sg14
F-0.004025568
sg15
F-0.004025649
sg16
g4
(g8
S'\xcd\xa1{G)}p\xbf'
p1044
tp1045
Rp1046
ssI50
(dp1047
g3
g4
(g8
S'\x15\xe6@\x13\xc4-\\>'
p1048
tp1049
Rp1050
sg14
F-4.812723e-06
sg15
F-4.91322e-06
sg16
g4
(g8
S'\x10\x9e\xbe\xde-\\\xd4\xbe'
p1051
tp1052
Rp1053
ssI19000
(dp1054
g3
g4
(g8
S'\xe1\r\xbf\xa1\x0f\xa5U>'
p1055
tp1056
Rp1057
sg14
F-0.005887985
sg15
F-0.00588807
sg16
g4
(g8
S'O\x99\xdb\xbb\x0c\x1ex\xbf'
p1058
tp1059
Rp1060
ssI700
(dp1061
g3
g4
(g8
S'\x8a\xb0qa\xe8\xa9q>'
p1062
tp1063
Rp1064
sg14
F-0.0002068685
sg15
F-0.0002071437
sg16
g4
(g8
S'L\xd0\x19,,\x1f+\xbf'
p1065
tp1066
Rp1067
ssI40000
(dp1068
g3
g4
(g8
S'\x8a\x9dj\xaa\x06@R>'
p1069
tp1070
Rp1071
sg14
F-0.01240925
sg15
F-0.01240932
sg16
g4
(g8
S'\xd5>3C\nj\x89\xbf'
p1072
tp1073
Rp1074
ssI4000
(dp1075
g3
g4
(g8
S'\xc6\xd3\xdf\x8bu\xb3i>'
p1076
tp1077
Rp1078
sg14
F-0.001231045
sg15
F-0.001231265
sg16
g4
(g8
S'\xf9A\x05\xe0\x0c,T\xbf'
p1079
tp1080
Rp1081
ssI200
(dp1082
g3
g4
(g8
S'\xac\xe6<+\xf6\x07^>'
p1083
tp1084
Rp1085
sg14
F-5.169294e-05
sg15
F-5.177774e-05
sg16
g4
(g8
S';\xdd\xd9c\xb6\x1f\x0b\xbf'
p1086
tp1087
Rp1088
ssI75
(dp1089
g3
g4
(g8
S'v\n9\x05\x84\xef[>'
p1090
tp1091
Rp1092
sg14
F-1.262975e-05
sg15
F-1.272569e-05
sg16
g4
(g8
S'\x9f\xfa\xc7\xba\x18\x9d\xea\xbe'
p1093
tp1094
Rp1095
ssI34000
(dp1096
g3
g4
(g8
S'\x86\xeaL\xe4&\xa4U>'
p1097
tp1098
Rp1099
sg14
F-0.01054544
sg15
F-0.01054551
sg16
g4
(g8
S'\xde\xa7\x8a\xaa\xdc\x98\x85\xbf'
p1100
tp1101
Rp1102
ssI7000
(dp1103
g3
g4
(g8
S"'\xad\x878p\x86R>"
p1104
tp1105
Rp1106
sg14
F-0.002162736
sg15
F-0.002162795
sg16
g4
(g8
S'\x1e\xb1O\x9f\xa7\xb7a\xbf'
p1107
tp1108
Rp1109
ssI28000
(dp1110
g3
g4
(g8
S'\x1a\xb9\xf2\xf8ONY>'
p1111
tp1112
Rp1113
sg14
F-0.008682637
sg15
F-0.008682737
sg16
g4
(g8
S'\xe7\x9f\xfd\x19:\xc8\x81\xbf'
p1114
tp1115
Rp1116
ssI10000
(dp1117
g3
g4
(g8
S'\x0b\xddy{\x17\x7f]>'
p1118
tp1119
Rp1120
sg14
F-0.003093964
sg15
F-0.00309406
sg16
g4
(g8
S'\xf0\xc7\xac\xa0\xa2Xi\xbf'
p1121
tp1122
Rp1123
ssI100
(dp1124
g3
g4
(g8
S'\xa4h\x1fa\x1c\x19S>'
p1125
tp1126
Rp1127
sg14
F-2.057867e-05
sg15
F-2.063183e-05
sg16
g4
(g8
S'\xbc)\x80G\xaf\x9a\xf5\xbe'
p1128
tp1129
Rp1130
ssI1000
(dp1131
g3
g4
(g8
S'\xe2g\x19g\xb8cZ>'
p1132
tp1133
Rp1134
sg14
F-0.0002996697
sg15
F-0.0002997562
sg16
g4
(g8
S'\xbc\x0fwn\x94\xa43\xbf'
p1135
tp1136
Rp1137
ssI22000
(dp1138
g3
g4
(g8
S'\x16\xa7kn\xe3\xc8R>'
p1139
tp1140
Rp1141
sg14
F-0.006819969
sg15
F-0.00682002
sg16
g4
(g8
S'\xaa\xad\xe8\xbbG\xef{\xbf'
p1142
tp1143
Rp1144
ssI500
(dp1145
g3
g4
(g8
S'\x92[\xaf\x88y\xa6P>'
p1146
tp1147
Rp1148
sg14
F-0.0001445335
sg15
F-0.0001445843
sg16
g4
(g8
S'\x91\xda Zo\xf2"\xbf'
p1149
tp1150
Rp1151
sssI7
(dp1152
I0
(dp1153
g3
g4
(g8
S'\xac\xdb`\x94\x0btb>'
p1154
tp1155
Rp1156
sg14
F1.627823e-05
sg15
F1.616144e-05
sg16
g4
(g8
S'v\x9e\x90>\xba\x06\xf1>'
p1157
tp1158
Rp1159
ssI16000
(dp1160
g3
g4
(g8
S'\t\x8e2a\x866`>'
p1161
tp1162
Rp1163
sg14
F-0.00495793
sg15
F-0.004958033
sg16
g4
(g8
S'o][M\xd2Nt\xbf'
p1164
tp1165
Rp1166
ssI900
(dp1167
g3
g4
(g8
S'\x0c\xb24\xfcK\xaey>'
p1168
tp1169
Rp1170
sg14
F-0.0002632304
sg15
F-0.0002636373
sg16
g4
(g8
S'\x11O\xd6c(A1\xbf'
p1171
tp1172
Rp1173
ssI37000
(dp1174
g3
g4
(g8
S' \xf7s\x80ctV>'
p1175
tp1176
Rp1177
sg14
F-0.01148057
sg15
F-0.01148065
sg16
g4
(g8
S'\xbeQw\xda$\x83\x87\xbf'
p1178
tp1179
Rp1180
ssI400
(dp1181
g3
g4
(g8
S'=\xfe\xb7\xb2\x96\xc1U>'
p1182
tp1183
Rp1184
sg14
F-0.0001079322
sg15
F-0.0001080148
sg16
g4
(g8
S'\x11\x9d<\x18(M\x1c\xbf'
p1185
tp1186
Rp1187
ssI600
(dp1188
g3
g4
(g8
S'\x80\xeb\x89\xf7\x05}[>'
p1189
tp1190
Rp1191
sg14
F-0.0001700256
sg15
F-0.0001701249
sg16
g4
(g8
S'\xe3\xde\xc1\xe2\xf4J&\xbf'
p1192
tp1193
Rp1194
ssI31000
(dp1195
g3
g4
(g8
S'g>R\xc8\xa02T>'
p1196
tp1197
Rp1198
sg14
F-0.009617808
sg15
F-0.009617889
sg16
g4
(g8
S'\x93\x97\xa6\xe1\x83\xb2\x83\xbf'
p1199
tp1200
Rp1201
ssI25
(dp1202
g3
g4
(g8
S'\xe5\xb6\xe1 kbT>'
p1203
tp1204
Rp1205
sg14
F8.467574e-06
sg15
F8.396041e-06
sg16
g4
(g8
S'\xbc\xbd\x13P\xaf\xaa\xe1>'
p1206
tp1207
Rp1208
ssI800
(dp1209
g3
g4
(g8
S'|\xed\xc0\xfc\xed\xb4s>'
p1210
tp1211
Rp1212
sg14
F-0.0002319952
sg15
F-0.0002323252
sg16
g4
(g8
S'\xf2\xc7%Q\xc3j.\xbf'
p1213
tp1214
Rp1215
ssI25000
(dp1216
g3
g4
(g8
S'\xa9>D\x811WT>'
p1217
tp1218
Rp1219
sg14
F-0.007753587
sg15
F-0.007753656
sg16
g4
(g8
S'\xeb\xc1\xebSD\xc2\x7f\xbf'
p1220
tp1221
Rp1222
ssI300
(dp1223
g3
g4
(g8
S'\xdb\xf1\x91\x0e\xe4\x0eU>'
p1224
tp1225
Rp1226
sg14
F-7.666647e-05
sg15
F-7.673512e-05
sg16
g4
(g8
S'\xf9\x01\xd1\xf0C\x1b\x14\xbf'
p1227
tp1228
Rp1229
ssI13000
(dp1230
g3
g4
(g8
S'\xea\xe6\x0f\x81\x0c\x80T>'
p1231
tp1232
Rp1233
sg14
F-0.004025516
sg15
F-0.00402558
sg16
g4
(g8
S'\xfb\xa8!\x95\x18}p\xbf'
p1234
tp1235
Rp1236
ssI50
(dp1237
g3
g4
(g8
S'\xfb\x10\xf1p\xba\xa7E>'
p1238
tp1239
Rp1240
sg14
F9.649724e-07
sg15
F9.308345e-07
sg16
g4
(g8
S'\xcdis\x02\xc4\xbe\xaf>'
p1241
tp1242
Rp1243
ssI19000
(dp1244
g3
g4
(g8
S'\xd6\x9d\xa3tS\xf9W>'
p1245
tp1246
Rp1247
sg14
F-0.005889521
sg15
F-0.005889589
sg16
g4
(g8
S'\xffq\xf8j\xa5\x1fx\xbf'
p1248
tp1249
Rp1250
ssI700
(dp1251
g3
g4
(g8
S'\xa0\xa26\x06g\xb8`>'
p1252
tp1253
Rp1254
sg14
F-0.0002012572
sg15
F-0.000201401
sg16
g4
(g8
S' \x11\xd3\x08@b*\xbf'
p1255
tp1256
Rp1257
ssI40000
(dp1258
g3
g4
(g8
S'F;<E\x98\x11d>'
p1259
tp1260
Rp1261
sg14
F-0.01241253
sg15
F-0.01241266
sg16
g4
(g8
S'~\xf8\xb5\xd2\xc4k\x89\xbf'
p1262
tp1263
Rp1264
ssI4000
(dp1265
g3
g4
(g8
S'0\x93\x18\n{\x18a>'
p1266
tp1267
Rp1268
sg14
F-0.001227533
sg15
F-0.001227677
sg16
g4
(g8
S'\x1ck\xc1w\xce\x1cT\xbf'
p1269
tp1270
Rp1271
ssI200
(dp1272
g3
g4
(g8
S']w\x04j\xce\xd9T>'
p1273
tp1274
Rp1275
sg14
F-4.593835e-05
sg15
F-4.599114e-05
sg16
g4
(g8
S'\xfa\xd2\x80\xfb\n\x19\x08\xbf'
p1276
tp1277
Rp1278
ssI75
(dp1279
g3
g4
(g8
S'\x1c\xb0\xe4\x8a\x1a5V>'
p1280
tp1281
Rp1282
sg14
F-6.856354e-06
sg15
F-6.92954e-06
sg16
g4
(g8
S'\x93\x82\xe2\xbe.\xe6\xdc\xbe'
p1283
tp1284
Rp1285
ssI34000
(dp1286
g3
g4
(g8
S'\xa9\x8a>\x8b\xfb\xb9P>'
p1287
tp1288
Rp1289
sg14
F-0.01054893
sg15
F-0.01054898
sg16
g4
(g8
S'\x82]\xef,\xb1\x9a\x85\xbf'
p1290
tp1291
Rp1292
ssI7000
(dp1293
g3
g4
(g8
S'\xfbdQ\xfc8aS>'
p1294
tp1295
Rp1296
sg14
F-0.002160375
sg15
F-0.002160438
sg16
g4
(g8
S'\x90r\xc3\xb5\xb2\xb2a\xbf'
p1297
tp1298
Rp1299
ssI28000
(dp1300
g3
g4
(g8
S'$\xb1\xf6\xcc5\nH>'
p1301
tp1302
Rp1303
sg14
F-0.008685609
sg15
F-0.008685648
sg16
g4
(g8
S'e{\x0f=\xc5\xc9\x81\xbf'
p1304
tp1305
Rp1306
ssI10000
(dp1307
g3
g4
(g8
S'\x80c\x08b<\xbc\\>'
p1308
tp1309
Rp1310
sg14
F-0.003092938
sg15
F-0.003093033
sg16
g4
(g8
S'\x1f\x0c\x98[vVi\xbf'
p1311
tp1312
Rp1313
ssI100
(dp1314
g3
g4
(g8
S'c\r\x90\xcf\x82_O>'
p1315
tp1316
Rp1317
sg14
F-1.482411e-05
sg15
F-1.487977e-05
sg16
g4
(g8
S'M\xbf\xb7\xeb- \xef\xbe'
p1318
tp1319
Rp1320
ssI1000
(dp1321
g3
g4
(g8
S'\x13\xb4x\xe7\xb4\xdey>'
p1322
tp1323
Rp1324
sg14
F-0.0002944078
sg15
F-0.0002948095
sg16
g4
(g8
S"\xffN\x1c\xb1'L3\xbf"
p1325
tp1326
Rp1327
ssI22000
(dp1328
g3
g4
(g8
S'\x17\xc27\x96\xe5gX>'
p1329
tp1330
Rp1331
sg14
F-0.006821432
sg15
F-0.006821522
sg16
g4
(g8
S'\xdc-x\x03\xdb\xf0{\xbf'
p1332
tp1333
Rp1334
ssI500
(dp1335
g3
g4
(g8
S"ip7v'BY>"
p1336
tp1337
Rp1338
sg14
F-0.0001388917
sg15
F-0.0001389684
sg16
g4
(g8
S'\xd0*\xc8\x1ax5"\xbf'
p1339
tp1340
Rp1341
sssI8
(dp1342
I0
(dp1343
g3
g4
(g8
S'\n\xbbg\x1eH+h>'
p1344
tp1345
Rp1346
sg14
F1.340822e-05
sg15
F1.32349e-05
sg16
g4
(g8
S'\xcbV\x94oY\xf8\xeb>'
p1347
tp1348
Rp1349
ssI16000
(dp1350
g3
g4
(g8
S'\xdd\xca\x06 \xb0\xbb`>'
p1351
tp1352
Rp1353
sg14
F-0.00495609
sg15
F-0.004956209
sg16
g4
(g8
S'ZM\n\xbc\xe2Lt\xbf'
p1354
tp1355
Rp1356
ssI900
(dp1357
g3
g4
(g8
S'\xed\xb5~l-^y>'
p1358
tp1359
Rp1360
sg14
F-0.0002656911
sg15
F-0.0002660856
sg16
g4
(g8
S"C\xa8a'Tj1\xbf"
p1361
tp1362
Rp1363
ssI37000
(dp1364
g3
g4
(g8
S'F\xbf\x83\xf6j\td>'
p1365
tp1366
Rp1367
sg14
F-0.01147961
sg15
F-0.01147976
sg16
g4
(g8
S'\x0b\xcb\xea\xe4\xaa\x82\x87\xbf'
p1368
tp1369
Rp1370
ssI400
(dp1371
g3
g4
(g8
S'i\x8c\x99\x80\xf3\xc0f>'
p1372
tp1373
Rp1374
sg14
F-0.0001104155
sg15
F-0.0001105739
sg16
g4
(g8
S'$7S\xad\xbb\xf6\x1c\xbf'
p1375
tp1376
Rp1377
ssI600
(dp1378
g3
g4
(g8
S'\xc3\xc1H\xff\x0e\xf6T>'
p1379
tp1380
Rp1381
sg14
F-0.000172728
sg15
F-0.0001727915
sg16
g4
(g8
S'\x1c\x03\xd6\x01\xe7\xa4&\xbf'
p1382
tp1383
Rp1384
ssI31000
(dp1385
g3
g4
(g8
S'|^\xa2\xfa\xe6`V>'
p1386
tp1387
Rp1388
sg14
F-0.009615859
sg15
F-0.009615934
sg16
g4
(g8
S'\xf4\xa9\xf5\xd3~\xb1\x83\xbf'
p1389
tp1390
Rp1391
ssI25
(dp1392
g3
g4
(g8
S'5\xd0\xc5\xe3\xf7.^>'
p1393
tp1394
Rp1395
sg14
F5.647608e-06
sg15
F5.538855e-06
sg16
g4
(g8
S'.\xe3\x96\xa3\x8b\\\xd7>'
p1396
tp1397
Rp1398
ssI800
(dp1399
g3
g4
(g8
S'\xfc\xd7\xf5s\x10\x03s>'
p1400
tp1401
Rp1402
sg14
F-0.0002345037
sg15
F-0.0002348421
sg16
g4
(g8
S'\xe3\xdf\xac\\\xb3\xbf.\xbf'
p1403
tp1404
Rp1405
ssI25000
(dp1406
g3
g4
(g8
S'Pw\xa7\x11\t\x93L>'
p1407
tp1408
Rp1409
sg14
F-0.00775168
sg15
F-0.007751731
sg16
g4
(g8
S'U\xde\xda;@\xc0\x7f\xbf'
p1410
tp1411
Rp1412
ssI300
(dp1413
g3
g4
(g8
S'\xb9R8=&TQ>'
p1414
tp1415
Rp1416
sg14
F-7.963032e-05
sg15
F-7.968135e-05
sg16
g4
(g8
S'w?2\xee\xea\xe1\x14\xbf'
p1417
tp1418
Rp1419
ssI13000
(dp1420
g3
g4
(g8
S'\x10W:9\xa9\x11S>'
p1421
tp1422
Rp1423
sg14
F-0.004024358
sg15
F-0.004024419
sg16
g4
(g8
S'\x04[\xaf\xe8\xdf{p\xbf'
p1424
tp1425
Rp1426
ssI50
(dp1427
g3
g4
(g8
S'q\xf8\xde\xa08\x8b`>'
p1428
tp1429
Rp1430
sg14
F-2.200105e-06
sg15
F-2.311263e-06
sg16
g4
(g8
S'\xb5\xab\xe2\x92g\xfa\xc2\xbe'
p1431
tp1432
Rp1433
ssI19000
(dp1434
g3
g4
(g8
S'%\xf2%(\x7f\xcfY>'
p1435
tp1436
Rp1437
sg14
F-0.00588771
sg15
F-0.005887812
sg16
g4
(g8
S' \xc5\x05\x11\xbf\x1dx\xbf'
p1438
tp1439
Rp1440
ssI700
(dp1441
g3
g4
(g8
S'\xaf\xe1\x9d\xeb\xce\x81z>'
p1442
tp1443
Rp1444
sg14
F-0.000203832
sg15
F-0.0002042588
sg16
g4
(g8
S'\xf7V\xe6\xae\xf0\xb9*\xbf'
p1445
tp1446
Rp1447
ssI40000
(dp1448
g3
g4
(g8
S'[!\x972\x1fel>'
p1449
tp1450
Rp1451
sg14
F-0.01241208
sg15
F-0.0124123
sg16
g4
(g8
S';(\xbe`\x8bk\x89\xbf'
p1452
tp1453
Rp1454
ssI4000
(dp1455
g3
g4
(g8
S'\x02\x87\xdb\xbe\xec\x99[>'
p1456
tp1457
Rp1458
sg14
F-0.00122845
sg15
F-0.001228535
sg16
g4
(g8
S'a\xc8\xd1\xad\xaf T\xbf'
p1459
tp1460
Rp1461
ssI200
(dp1462
g3
g4
(g8
S'\xcf7\x81@\xc6dK>'
p1463
tp1464
Rp1465
sg14
F-4.864036e-05
sg15
F-4.868528e-05
sg16
g4
(g8
S'Cq\x03\xf1\x17\x83\t\xbf'
p1466
tp1467
Rp1468
ssI75
(dp1469
g3
g4
(g8
S'\x8cd\x01\xe5\x9a\xbb^>'
p1470
tp1471
Rp1472
sg14
F-9.68658e-06
sg15
F-9.776119e-06
sg16
g4
(g8
S'\xf2U\\8Fg\xe4\xbe'
p1473
tp1474
Rp1475
ssI34000
(dp1476
g3
g4
(g8
S'\x03\xa0\x8fR\xd4f`>'
p1477
tp1478
Rp1479
sg14
F-0.01054735
sg15
F-0.01054745
sg16
g4
(g8
S'\xa6\x81\xdd\xb8\xde\x99\x85\xbf'
p1480
tp1481
Rp1482
ssI7000
(dp1483
g3
g4
(g8
S'\x87q1Q*\xb2X>'
p1484
tp1485
Rp1486
sg14
F-0.002160287
sg15
F-0.00216037
sg16
g4
(g8
S'\xaa\x89q\x04\x8b\xb2a\xbf'
p1487
tp1488
Rp1489
ssI28000
(dp1490
g3
g4
(g8
S'%\xcc\xe7PhEW>'
p1491
tp1492
Rp1493
sg14
F-0.008683749
sg15
F-0.008683817
sg16
g4
(g8
S'9k\x99\x8d\xcd\xc8\x81\xbf'
p1494
tp1495
Rp1496
ssI10000
(dp1497
g3
g4
(g8
S'\x81\xf9L\xe0\x05\xc8Z>'
p1498
tp1499
Rp1500
sg14
F-0.003091997
sg15
F-0.00309208
sg16
g4
(g8
S'\xe3,(\xa8zTi\xbf'
p1501
tp1502
Rp1503
ssI100
(dp1504
g3
g4
(g8
S'\xc0L\x17\xfe46X>'
p1505
tp1506
Rp1507
sg14
F-1.750333e-05
sg15
F-1.758864e-05
sg16
g4
(g8
S'I\x0cS\xbc@f\xf2\xbe'
p1508
tp1509
Rp1510
ssI1000
(dp1511
g3
g4
(g8
S'\x91\xa6e\t\xaf\x1ct>'
p1512
tp1513
Rp1514
sg14
F-0.0002969362
sg15
F-0.0002972517
sg16
g4
(g8
S'p\xa1\xa5\xf2lv3\xbf'
p1515
tp1516
Rp1517
ssI22000
(dp1518
g3
g4
(g8
S'2\x9c\xe8\x0f\\\xcc[>'
p1519
tp1520
Rp1521
sg14
F-0.006819816
sg15
F-0.006819907
sg16
g4
(g8
S"\x0ek\xe0\t'\xef{\xbf"
p1522
tp1523
Rp1524
ssI500
(dp1525
g3
g4
(g8
S'\xf7\x14~\x17\xdd\xfb^>'
p1526
tp1527
Rp1528
sg14
F-0.0001416861
sg15
F-0.0001417738
sg16
g4
(g8
S'zP~\xb1\xbb\x93"\xbf'
p1529
tp1530
Rp1531
sssI9
(dp1532
I0
(dp1533
g3
g4
(g8
S'j/\x01\xb7v#c>'
p1534
tp1535
Rp1536
sg14
F1.708268e-05
sg15
F1.693766e-05
sg16
g4
(g8
S'\xe5~<\x16y\xdb\xf1>'
p1537
tp1538
Rp1539
ssI16000
(dp1540
g3
g4
(g8
S'yQ\xfe\x06\xb8\xa7]>'
p1541
tp1542
Rp1543
sg14
F-0.004955936
sg15
F-0.00495603
sg16
g4
(g8
S'\xaf\xfb\x8f\xd5\xb5Lt\xbf'
p1544
tp1545
Rp1546
ssI900
(dp1547
g3
g4
(g8
S'\x9f\x87\x0eG\xe4Ew>'
p1548
tp1549
Rp1550
sg14
F-0.0002622693
sg15
F-0.0002626356
sg16
g4
(g8
S'\xf2\xae\x06!\n11\xbf'
p1551
tp1552
Rp1553
ssI37000
(dp1554
g3
g4
(g8
S'p\x04j\x1fA\xe4r>'
p1555
tp1556
Rp1557
sg14
F-0.01147965
sg15
F-0.0114799
sg16
g4
(g8
S'\xd4\xe4=^\xaf\x82\x87\xbf'
p1558
tp1559
Rp1560
ssI400
(dp1561
g3
g4
(g8
S'\xa3\x05\x17\xccIoU>'
p1562
tp1563
Rp1564
sg14
F-0.0001071374
sg15
F-0.0001072058
sg16
g4
(g8
S'\xb5l\xb4\x06\xfc\x17\x1c\xbf'
p1565
tp1566
Rp1567
ssI600
(dp1568
g3
g4
(g8
S'\xc7\x99\x1d\xd4\x98\xc5V>'
p1569
tp1570
Rp1571
sg14
F-0.0001692648
sg15
F-0.000169337
sg16
g4
(g8
S'E\xa6U7v0&\xbf'
p1572
tp1573
Rp1574
ssI31000
(dp1575
g3
g4
(g8
S'\xa1\xb0\x16\x10\xf4\x08a>'
p1576
tp1577
Rp1578
sg14
F-0.009616457
sg15
F-0.009616556
sg16
g4
(g8
S'\xa1W\x18/\xd1\xb1\x83\xbf'
p1579
tp1580
Rp1581
ssI25
(dp1582
g3
g4
(g8
S':\x83\xb4\xc8\xa8\x9fT>'
p1583
tp1584
Rp1585
sg14
F9.337726e-06
sg15
F9.264102e-06
sg16
g4
(g8
S'\xe9\\\x17EW~\xe3>'
p1586
tp1587
Rp1588
ssI800
(dp1589
g3
g4
(g8
S'L\xea\x99,\xa7\xaew>'
p1590
tp1591
Rp1592
sg14
F-0.0002313604
sg15
F-0.0002317322
sg16
g4
(g8
S'P{\x99\x93\xa5T.\xbf'
p1593
tp1594
Rp1595
ssI25000
(dp1596
g3
g4
(g8
S'MX\xc8\xadl#d>'
p1597
tp1598
Rp1599
sg14
F-0.007752683
sg15
F-0.00775281
sg16
g4
(g8
S'\x7f\xcf>\x06T\xc1\x7f\xbf'
p1600
tp1601
Rp1602
ssI300
(dp1603
g3
g4
(g8
S'\xccH\x1aLI\xccb>'
p1604
tp1605
Rp1606
sg14
F-7.61405e-05
sg15
F-7.625864e-05
sg16
g4
(g8
S"\x95\xb2\x93'\x10\xfa\x13\xbf"
p1607
tp1608
Rp1609
ssI13000
(dp1610
g3
g4
(g8
S'v{3Y\x80"f>'
p1611
tp1612
Rp1613
sg14
F-0.004023463
sg15
F-0.004023613
sg16
g4
(g8
S'\xacX\xfa\x99\x06{p\xbf'
p1614
tp1615
Rp1616
ssI50
(dp1617
g3
g4
(g8
S'\xc7&]\x98X\xbcc>'
p1618
tp1619
Rp1620
sg14
F1.490054e-06
sg15
F1.368528e-06
sg16
g4
(g8
S'\x96\x81\xad$9\xae\xb7>'
p1621
tp1622
Rp1623
ssI19000
(dp1624
g3
g4
(g8
S'\x89\xf3\xac\xb4\xc7r^>'
p1625
tp1626
Rp1627
sg14
F-0.005887762
sg15
F-0.005887881
sg16
g4
(g8
S'\xd9awz\xd8\x1dx\xbf'
p1628
tp1629
Rp1630
ssI700
(dp1631
g3
g4
(g8
S'\xe85\xcf\x07A\xd3x>'
p1632
tp1633
Rp1634
sg14
F-0.0002000146
sg15
F-0.0002003998
sg16
g4
(g8
S'W\xcd\x9b|\xbeB*\xbf'
p1635
tp1636
Rp1637
ssI40000
(dp1638
g3
g4
(g8
S'\xdd5z{\xb6Pw>'
p1639
tp1640
Rp1641
sg14
F-0.0124111
sg15
F-0.0124114
sg16
g4
(g8
S'\x9a\x99E\x9a\x0bk\x89\xbf'
p1642
tp1643
Rp1644
ssI4000
(dp1645
g3
g4
(g8
S'\x9fmA\xacU\x0b|>'
p1646
tp1647
Rp1648
sg14
F-0.001226118
sg15
F-0.001226574
sg16
g4
(g8
S'\xc7+<\xa5\n\x17T\xbf'
p1649
tp1650
Rp1651
ssI200
(dp1652
g3
g4
(g8
S'\xf9cLq\xae\xcbU>'
p1653
tp1654
Rp1655
sg14
F-4.503987e-05
sg15
F-4.513354e-05
sg16
g4
(g8
S'o\xdexu\x94\xa2\x07\xbf'
p1656
tp1657
Rp1658
ssI75
(dp1659
g3
g4
(g8
S'\xe3\x92\xdf\xcc\xa2\x85Y>'
p1660
tp1661
Rp1662
sg14
F-6.060262e-06
sg15
F-6.148796e-06
sg16
g4
(g8
S'\xd1\x90\xd8\xb0S\xa2\xd9\xbe'
p1663
tp1664
Rp1665
ssI34000
(dp1666
g3
g4
(g8
S'}@\xc9\x7f\x10Qg>'
p1667
tp1668
Rp1669
sg14
F-0.01054781
sg15
F-0.01054797
sg16
g4
(g8
S'\xb7\xe8\xe9\xc9\x1e\x9a\x85\xbf'
p1670
tp1671
Rp1672
ssI7000
(dp1673
g3
g4
(g8
S'\xeb!\x1e\xfeHAT>'
p1674
tp1675
Rp1676
sg14
F-0.002158556
sg15
F-0.00215862
sg16
g4
(g8
S'\x80\xdc\xd5[\xe3\xaea\xbf'
p1677
tp1678
Rp1679
ssI28000
(dp1680
g3
g4
(g8
S'\xae+=m*\x12V>'
p1681
tp1682
Rp1683
sg14
F-0.008684332
sg15
F-0.008684412
sg16
g4
(g8
S'^\xc4\xa4i\x1d\xc9\x81\xbf'
p1684
tp1685
Rp1686
ssI10000
(dp1687
g3
g4
(g8
S'\xdcr\xac\xf9\x80\x16U>'
p1688
tp1689
Rp1690
sg14
F-0.003090635
sg15
F-0.003090723
sg16
g4
(g8
S'\xd0\xd7\xf9+\xa8Qi\xbf'
p1691
tp1692
Rp1693
ssI100
(dp1694
g3
g4
(g8
S'^\xe8)^\xc5\xdeV>'
p1695
tp1696
Rp1697
sg14
F-1.395781e-05
sg15
F-1.402988e-05
sg16
g4
(g8
S':\xa4\xac|\xadW\xed\xbe'
p1698
tp1699
Rp1700
ssI1000
(dp1701
g3
g4
(g8
S'k+c,\x81\x1cr>'
p1702
tp1703
Rp1704
sg14
F-0.0002933361
sg15
F-0.0002936661
sg16
g4
(g8
S'2)\x9f\xe6\xf8:3\xbf'
p1705
tp1706
Rp1707
ssI22000
(dp1708
g3
g4
(g8
S'7`<\x07t\xdaT>'
p1709
tp1710
Rp1711
sg14
F-0.006820727
sg15
F-0.006820787
sg16
g4
(g8
S'\x84r\x8c\xb5\x13\xf0{\xbf'
p1712
tp1713
Rp1714
ssI500
(dp1715
g3
g4
(g8
S'8H="\xe4\xae`>'
p1716
tp1717
Rp1718
sg14
F-0.0001380998
sg15
F-0.0001382053
sg16
g4
(g8
S'\x8cp\x12\xd6V\x1b"\xbf'
p1719
tp1720
Rp1721
sssI10
(dp1722
I0
(dp1723
g3
g4
(g8
S'\xbb#7s\xc8\x8ed>'
p1724
tp1725
Rp1726
sg14
F1.257087e-05
sg15
F1.245049e-05
sg16
g4
(g8
S'\xe7\xa1\xe9\xdb\xa07\xea>'
p1727
tp1728
Rp1729
ssI16000
(dp1730
g3
g4
(g8
S'Z\xb8\x1c4.\xeaV>'
p1731
tp1732
Rp1733
sg14
F-0.004955777
sg15
F-0.004955853
sg16
g4
(g8
S'\x844\x8d\xe3\x8cLt\xbf'
p1734
tp1735
Rp1736
ssI900
(dp1737
g3
g4
(g8
S'\x99\xff\x13[\x9f\x95z>'
p1738
tp1739
Rp1740
sg14
F-0.0002662807
sg15
F-0.000266723
sg16
g4
(g8
S'@\x80\xb5\x08\xe3t1\xbf'
p1741
tp1742
Rp1743
ssI37000
(dp1744
g3
g4
(g8
S'\x11\x89q\xfe\xd8\xaf[>'
p1745
tp1746
Rp1747
sg14
F-0.01148135
sg15
F-0.01148145
sg16
g4
(g8
S'\xb3;\x82\xf1\x90\x83\x87\xbf'
p1748
tp1749
Rp1750
ssI400
(dp1751
g3
g4
(g8
S'\xa2\x19w\xc7"\xb1R>'
p1752
tp1753
Rp1754
sg14
F-0.0001114712
sg15
F-0.0001115321
sg16
g4
(g8
S'\xac\xb2P_\xd2:\x1d\xbf'
p1755
tp1756
Rp1757
ssI600
(dp1758
g3
g4
(g8
S'\x13\xf5E\xafn\xa1Q>'
p1759
tp1760
Rp1761
sg14
F-0.0001733574
sg15
F-0.0001734236
sg16
g4
(g8
S'\ryg\x92.\xba&\xbf'
p1762
tp1763
Rp1764
ssI31000
(dp1765
g3
g4
(g8
S'*\xedNq\xe3GX>'
p1766
tp1767
Rp1768
sg14
F-0.009617527
sg15
F-0.009617608
sg16
g4
(g8
S'\x9c\x01\xa0\xd4_\xb2\x83\xbf'
p1769
tp1770
Rp1771
ssI25
(dp1772
g3
g4
(g8
S'0L)\x1f\x17\x1fV>'
p1773
tp1774
Rp1775
sg14
F5.12004e-06
sg15
F5.027518e-06
sg16
g4
(g8
S'\xe2\x8d\\\xf1\xcdB\xd5>'
p1776
tp1777
Rp1778
ssI800
(dp1779
g3
g4
(g8
S'3\xd6\xee\xc3GEt>'
p1780
tp1781
Rp1782
sg14
F-0.0002352056
sg15
F-0.00023553
sg16
g4
(g8
S'%\xb2\xd5o]\xdd.\xbf'
p1783
tp1784
Rp1785
ssI25000
(dp1786
g3
g4
(g8
S'\xcb\xee\x04W\xadRT>'
p1787
tp1788
Rp1789
sg14
F-0.00775244
sg15
F-0.007752507
sg16
g4
(g8
S'\xdd\xfe\xa3R\x0f\xc1\x7f\xbf'
p1790
tp1791
Rp1792
ssI300
(dp1793
g3
g4
(g8
S'1\x05\xdb+\xd1\x97X>'
p1794
tp1795
Rp1796
sg14
F-8.025702e-05
sg15
F-8.032328e-05
sg16
g4
(g8
S'>\xe6Nm\xf3\x0b\x15\xbf'
p1797
tp1798
Rp1799
ssI13000
(dp1800
g3
g4
(g8
S'\xf0\xe7K\xce\x1d\x12W>'
p1801
tp1802
Rp1803
sg14
F-0.004024264
sg15
F-0.004024333
sg16
g4
(g8
S'\xc1\xe8\xde|\xca{p\xbf'
p1804
tp1805
Rp1806
ssI50
(dp1807
g3
g4
(g8
S'o\xb2\xa6\xb8\x11\xa8Z>'
p1808
tp1809
Rp1810
sg14
F-2.739343e-06
sg15
F-2.841998e-06
sg16
g4
(g8
S'\x9d^\xa8\xca\x9at\xc7\xbe'
p1811
tp1812
Rp1813
ssI19000
(dp1814
g3
g4
(g8
S'\xbad\xe2\x05.aT>'
p1815
tp1816
Rp1817
sg14
F-0.005887954
sg15
F-0.005888022
sg16
g4
(g8
S'\x97\xab\x05\x90\xff\x1dx\xbf'
p1818
tp1819
Rp1820
ssI700
(dp1821
g3
g4
(g8
S'\xad\xef\xc1\xa5A`t>'
p1822
tp1823
Rp1824
sg14
F-0.0002042105
sg15
F-0.0002045466
sg16
g4
(g8
S'\x81\x87\x06\xfe@\xcd*\xbf'
p1825
tp1826
Rp1827
ssI40000
(dp1828
g3
g4
(g8
S'\xa3?\xde\x13G\xaaa>'
p1829
tp1830
Rp1831
sg14
F-0.01241373
sg15
F-0.01241384
sg16
g4
(g8
S'-\xf8\xd5kfl\x89\xbf'
p1832
tp1833
Rp1834
ssI4000
(dp1835
g3
g4
(g8
S'\xe1\xea\xd99\xee\xf7w>'
p1836
tp1837
Rp1838
sg14
F-0.001229447
sg15
F-0.001229822
sg16
g4
(g8
S'\x0e\xf7\xd2\x8f\xe0$T\xbf'
p1839
tp1840
Rp1841
ssI200
(dp1842
g3
g4
(g8
S'\\e\xbbw\xb8\x04V>'
p1843
tp1844
Rp1845
sg14
F-4.924766e-05
sg15
F-4.933436e-05
sg16
g4
(g8
S'O\x87\x9f5\xbb\xd5\t\xbf'
p1846
tp1847
Rp1848
ssI75
(dp1849
g3
g4
(g8
S'N\xe5r\xf0\x9c-\\>'
p1850
tp1851
Rp1852
sg14
F-1.063645e-05
sg15
F-1.072567e-05
sg16
g4
(g8
S'g{\xaa,sd\xe6\xbe'
p1853
tp1854
Rp1855
ssI34000
(dp1856
g3
g4
(g8
S'\xb0\x03sb\xc4N`>'
p1857
tp1858
Rp1859
sg14
F-0.01054902
sg15
F-0.01054912
sg16
g4
(g8
S'\x02\x99\x81\xf0\xbf\x9a\x85\xbf'
p1860
tp1861
Rp1862
ssI7000
(dp1863
g3
g4
(g8
S'C\xb0\xa4\xa6\xfbZ]>'
p1864
tp1865
Rp1866
sg14
F-0.002160924
sg15
F-0.002161043
sg16
g4
(g8
S'>\x16\xde\xca\xf2\xb3a\xbf'
p1867
tp1868
Rp1869
ssI28000
(dp1870
g3
g4
(g8
S'\x12=P\xd5\xee\x07Q>'
p1871
tp1872
Rp1873
sg14
F-0.008684836
sg15
F-0.008684896
sg16
g4
(g8
S'\xa0\xf8`\x80_\xc9\x81\xbf'
p1874
tp1875
Rp1876
ssI10000
(dp1877
g3
g4
(g8
S'#\xe6\x13\xd8F\x90T>'
p1878
tp1879
Rp1880
sg14
F-0.003092369
sg15
F-0.003092425
sg16
g4
(g8
S'\rh\xca\x8f6Ui\xbf'
p1881
tp1882
Rp1883
ssI100
(dp1884
g3
g4
(g8
S'\xd7\x1f\xd3\xbd\xc1\xcbW>'
p1885
tp1886
Rp1887
sg14
F-1.817245e-05
sg15
F-1.82521e-05
sg16
g4
(g8
S'\x8a\xf9S\x03\xf8\x19\xf3\xbe'
p1888
tp1889
Rp1890
ssI1000
(dp1891
g3
g4
(g8
S'\xf5\xff4\xf4*>m>'
p1892
tp1893
Rp1894
sg14
F-0.0002975192
sg15
F-0.0002977588
sg16
g4
(g8
S'\xe5\xd0\x9f\x9b`\x803\xbf'
p1895
tp1896
Rp1897
ssI22000
(dp1898
g3
g4
(g8
S'(jl\xf2`\x98V>'
p1899
tp1900
Rp1901
sg14
F-0.006820664
sg15
F-0.006820758
sg16
g4
(g8
S'\xf3\x89\xbd[\x0e\xf0{\xbf'
p1902
tp1903
Rp1904
ssI500
(dp1905
g3
g4
(g8
S'\x0b\x04\x7f\x83u\x93U>'
p1906
tp1907
Rp1908
sg14
F-0.0001422288
sg15
F-0.0001423079
sg16
g4
(g8
S'f\xad12{\xa5"\xbf'
p1909
tp1910
Rp1911
sssI11
(dp1912
I0
(dp1913
g3
g4
(g8
S'Z\x01\xd5\xa6\xb6\xefd>'
p1914
tp1915
Rp1916
sg14
F1.537164e-05
sg15
F1.523069e-05
sg16
g4
(g8
S'w\x99\x04\x8d3\r\xf0>'
p1917
tp1918
Rp1919
ssI16000
(dp1920
g3
g4
(g8
S'\xf6.o\xdbb\xfbV>'
p1921
tp1922
Rp1923
sg14
F-0.004959228
sg15
F-0.004959318
sg16
g4
(g8
S'\xc3\x8c\xe6\x90,Pt\xbf'
p1924
tp1925
Rp1926
ssI900
(dp1927
g3
g4
(g8
S'K\xf6]7a.u>'
p1928
tp1929
Rp1930
sg14
F-0.0002639264
sg15
F-0.0002642655
sg16
g4
(g8
S't\x01L\xfb\xe6L1\xbf'
p1931
tp1932
Rp1933
ssI37000
(dp1934
g3
g4
(g8
S'r\x10\x80\t\x86\x11r>'
p1935
tp1936
Rp1937
sg14
F-0.0114857
sg15
F-0.01148594
sg16
g4
(g8
S'\xff\xfc0\xd5\xdb\x85\x87\xbf'
p1938
tp1939
Rp1940
ssI400
(dp1941
g3
g4
(g8
S'N:\xb8\x1e0$W>'
p1942
tp1943
Rp1944
sg14
F-0.0001086112
sg15
F-0.0001086893
sg16
g4
(g8
S'\rrP\xd1a{\x1c\xbf'
p1945
tp1946
Rp1947
ssI600
(dp1948
g3
g4
(g8
S'\xf1C>m\xe8\xc8\\>'
p1949
tp1950
Rp1951
sg14
F-0.0001706045
sg15
F-0.0001706896
sg16
g4
(g8
S'1\xbfG\x94\xc6]&\xbf'
p1952
tp1953
Rp1954
ssI31000
(dp1955
g3
g4
(g8
S'a\\{\xa8\x85\xf8b>'
p1956
tp1957
Rp1958
sg14
F-0.009621661
sg15
F-0.009621795
sg16
g4
(g8
S']F\xe8m\x8b\xb4\x83\xbf'
p1959
tp1960
Rp1961
ssI25
(dp1962
g3
g4
(g8
S'>|\xc9\x1e\x13\x98U>'
p1963
tp1964
Rp1965
sg14
F7.8909e-06
sg15
F7.808639e-06
sg16
g4
(g8
S'8\xbf\x06\x14Nz\xe0>'
p1966
tp1967
Rp1968
ssI800
(dp1969
g3
g4
(g8
S'\xd4\xb8\x89\x0c\xdb\x18s>'
p1970
tp1971
Rp1972
sg14
F-0.0002325753
sg15
F-0.0002328791
sg16
g4
(g8
S'\xcf\xc3:W\xb5\x84.\xbf'
p1973
tp1974
Rp1975
ssI25000
(dp1976
g3
g4
(g8
S'T\x89\xf5\x1a\xef\xafX>'
p1977
tp1978
Rp1979
sg14
F-0.007756704
sg15
F-0.007756788
sg16
g4
(g8
S'5\xf8\xc23\x89\xc5\x7f\xbf'
p1980
tp1981
Rp1982
ssI300
(dp1983
g3
g4
(g8
S'_\x8b\x8dw`#W>'
p1984
tp1985
Rp1986
sg14
F-7.748593e-05
sg15
F-7.756939e-05
sg16
g4
(g8
S'\xeaV\xc9\x90\xedR\x14\xbf'
p1987
tp1988
Rp1989
ssI13000
(dp1990
g3
g4
(g8
S'\x1c\xb6\xaa~\xacr]>'
p1991
tp1992
Rp1993
sg14
F-0.004026455
sg15
F-0.004026561
sg16
g4
(g8
S')\x02h\x11\x1b~p\xbf'
p1994
tp1995
Rp1996
ssI50
(dp1997
g3
g4
(g8
S'\xa1\xe6e\x9a:\xc8P>'
p1998
tp1999
Rp2000
sg14
F1.124732e-07
sg15
F4.573353e-08
sg16
g4
(g8
S'\x0e\x11\xf7\x10\x10\x0bs>'
p2001
tp2002
Rp2003
ssI19000
(dp2004
g3
g4
(g8
S'E~\xd1\xf5\xe9\x84O>'
p2005
tp2006
Rp2007
sg14
F-0.005891401
sg15
F-0.005891442
sg16
g4
(g8
S'7:\xfa\xa3\x9a!x\xbf'
p2008
tp2009
Rp2010
ssI700
(dp2011
g3
g4
(g8
S'u\x12{~\xc28j>'
p2012
tp2013
Rp2014
sg14
F-0.0002015682
sg15
F-0.0002017772
sg16
g4
(g8
S'\x00E\xb5p;q*\xbf'
p2015
tp2016
Rp2017
ssI40000
(dp2018
g3
g4
(g8
S'j\xb1=\x97=\x95w>'
p2019
tp2020
Rp2021
sg14
F-0.01241771
sg15
F-0.01241801
sg16
g4
(g8
S'\xae\xab[\x9e\x81n\x89\xbf'
p2022
tp2023
Rp2024
ssI4000
(dp2025
g3
g4
(g8
S'\xae\xb2@\x1eV)c>'
p2026
tp2027
Rp2028
sg14
F-0.001228082
sg15
F-0.001228204
sg16
g4
(g8
S'\x89\x16\xeb\xa54\x1fT\xbf'
p2029
tp2030
Rp2031
ssI200
(dp2032
g3
g4
(g8
S'h\xf7+\xc0?\xbbP>'
p2033
tp2034
Rp2035
sg14
F-4.651041e-05
sg15
F-4.655993e-05
sg16
g4
(g8
S'J|G\x97\xcae\x08\xbf'
p2036
tp2037
Rp2038
ssI75
(dp2039
g3
g4
(g8
S'\xf9\x88\x98?\xbe\xba^>'
p2040
tp2041
Rp2042
sg14
F-7.695557e-06
sg15
F-7.792124e-06
sg16
g4
(g8
S'Zp<BjA\xe0\xbe'
p2043
tp2044
Rp2045
ssI34000
(dp2046
g3
g4
(g8
S'*e@\xf6;jo>'
p2047
tp2048
Rp2049
sg14
F-0.01055329
sg15
F-0.01055348
sg16
g4
(g8
S'yJX2\xff\x9c\x85\xbf'
p2050
tp2051
Rp2052
ssI7000
(dp2053
g3
g4
(g8
S'n\xd7\xe8\x0e\xac\x11^>'
p2054
tp2055
Rp2056
sg14
F-0.002161026
sg15
F-0.002161138
sg16
g4
(g8
S"A\xed\xb8^'\xb4a\xbf"
p2057
tp2058
Rp2059
ssI28000
(dp2060
g3
g4
(g8
S'L\xfeI\xba&\xe5c>'
p2061
tp2062
Rp2063
sg14
F-0.008688978
sg15
F-0.008689117
sg16
g4
(g8
S'\xf9nX\xb5\x8f\xcb\x81\xbf'
p2064
tp2065
Rp2066
ssI10000
(dp2067
g3
g4
(g8
S'T!\xcd\xc9\x0b\xf1\\>'
p2068
tp2069
Rp2070
sg14
F-0.003093841
sg15
F-0.00309393
sg16
g4
(g8
S'\x04\xe9\xf5\xb0\\Xi\xbf'
p2071
tp2072
Rp2073
ssI100
(dp2074
g3
g4
(g8
S'\x10e\x0e\xa7o\x04X>'
p2075
tp2076
Rp2077
sg14
F-1.540706e-05
sg15
F-1.548169e-05
sg16
g4
(g8
S'\x1b\x94r\xd5\xcf1\xf0\xbe'
p2078
tp2079
Rp2080
ssI1000
(dp2081
g3
g4
(g8
S'\n\x00\xee\xb6\x99mv>'
p2082
tp2083
Rp2084
sg14
F-0.0002948565
sg15
F-0.0002952106
sg16
g4
(g8
S'N\xc1#\xf1\xc1S3\xbf'
p2085
tp2086
Rp2087
ssI22000
(dp2088
g3
g4
(g8
S'I\x8e\xf3\xeb\xc6j_>'
p2089
tp2090
Rp2091
sg14
F-0.006824214
sg15
F-0.0068243
sg16
g4
(g8
S'\x13\xb8\x08\xd8\xc0\xf3{\xbf'
p2092
tp2093
Rp2094
ssI500
(dp2095
g3
g4
(g8
S'\xcf\xae\xba\x1ez\x16Z>'
p2096
tp2097
Rp2098
sg14
F-0.0001397559
sg15
F-0.0001398254
sg16
g4
(g8
S'\x02\xbe\xbe1\x97R"\xbf'
p2099
tp2100
Rp2101
sssI12
(dp2102
I0
(dp2103
g3
g4
(g8
S'.\xaf\x838\xfb\x8bb>'
p2104
tp2105
Rp2106
sg14
F1.512981e-05
sg15
F1.500963e-05
sg16
g4
(g8
S'0a\xd3\x7f2\x9b\xef>'
p2107
tp2108
Rp2109
ssI16000
(dp2110
g3
g4
(g8
S'+\xa6\xfe\x06\xb8\xa7]>'
p2111
tp2112
Rp2113
sg14
F-0.004954688
sg15
F-0.004954779
sg16
g4
(g8
S'\x03\xa7Z\xf1jKt\xbf'
p2114
tp2115
Rp2116
ssI900
(dp2117
g3
g4
(g8
S'7`\x02\xb9\xd9\xa6l>'
p2118
tp2119
Rp2120
sg14
F-0.0002640877
sg15
F-0.0002643263
sg16
g4
(g8
S'KSt\xb3\x8dO1\xbf'
p2121
tp2122
Rp2123
ssI37000
(dp2124
g3
g4
(g8
S'*\xe9\x86\x0b\x00\xeck>'
p2125
tp2126
Rp2127
sg14
F-0.01148055
sg15
F-0.01148072
sg16
g4
(g8
S'\x010(\x1b&\x83\x87\xbf'
p2128
tp2129
Rp2130
ssI400
(dp2131
g3
g4
(g8
S'\rvpk\xab\xfb[>'
p2132
tp2133
Rp2134
sg14
F-0.0001088311
sg15
F-0.0001089304
sg16
g4
(g8
S'\xbe+\xdb=\xb5\x8a\x1c\xbf'
p2135
tp2136
Rp2137
ssI600
(dp2138
g3
g4
(g8
S'\xc9\xce\xcf\xd1\xed\x93U>'
p2139
tp2140
Rp2141
sg14
F-0.0001710843
sg15
F-0.0001711554
sg16
g4
(g8
S'\x14\xb0_\xa8\xaam&\xbf'
p2142
tp2143
Rp2144
ssI31000
(dp2145
g3
g4
(g8
S'\xf9\x1d\xd48\x0e\xa5c>'
p2146
tp2147
Rp2148
sg14
F-0.009615516
sg15
F-0.009615654
sg16
g4
(g8
S'/de\xe1T\xb1\x83\xbf'
p2149
tp2150
Rp2151
ssI25
(dp2152
g3
g4
(g8
S'\xfc\xf6\x0c\x91\xc1\xf0S>'
p2153
tp2154
Rp2155
sg14
F7.289224e-06
sg15
F7.216596e-06
sg16
g4
(g8
S'w:\xb5B2e\xde>'
p2156
tp2157
Rp2158
ssI800
(dp2159
g3
g4
(g8
S'\x1e\xfa\x00\x00\x96Hx>'
p2160
tp2161
Rp2162
sg14
F-0.0002326
sg15
F-0.0002329785
sg16
g4
(g8
S'\xfcZn\x85\xe2\x87.\xbf'
p2163
tp2164
Rp2165
ssI25000
(dp2166
g3
g4
(g8
S'\xf2z\xe50\x12\xfcV>'
p2167
tp2168
Rp2169
sg14
F-0.007750819
sg15
F-0.007750892
sg16
g4
(g8
S']\xfbR\xd9[\xbf\x7f\xbf'
p2170
tp2171
Rp2172
ssI300
(dp2173
g3
g4
(g8
S'\xfe\x15z7$\x9aO>'
p2174
tp2175
Rp2176
sg14
F-7.768943e-05
sg15
F-7.775099e-05
sg16
g4
(g8
S'\x8f\xe8\xa2Y~`\x14\xbf'
p2177
tp2178
Rp2179
ssI13000
(dp2180
g3
g4
(g8
S'\xde\xe4\xde\x7fibX>'
p2181
tp2182
Rp2183
sg14
F-0.004022821
sg15
F-0.004022919
sg16
g4
(g8
S'\x1a\xeb\xbanLzp\xbf'
p2184
tp2185
Rp2186
ssI50
(dp2187
g3
g4
(g8
S'\x8b\xa1\xa9\xf2\xdb\xdeZ>'
p2188
tp2189
Rp2190
sg14
F-1.578279e-07
sg15
F-2.494358e-07
sg16
g4
(g8
S's\x0faXhg\x8b\xbe'
p2191
tp2192
Rp2193
ssI19000
(dp2194
g3
g4
(g8
S'J9\xf4\xd3\x1aWV>'
p2195
tp2196
Rp2197
sg14
F-0.005886599
sg15
F-0.005886683
sg16
g4
(g8
S'\xe10\x00r\x96\x1cx\xbf'
p2198
tp2199
Rp2200
ssI700
(dp2201
g3
g4
(g8
S'F\x07{\x84oH{>'
p2202
tp2203
Rp2204
sg14
F-0.0002014168
sg15
F-0.0002018538
sg16
g4
(g8
S"\x01A\xc6'\xafr*\xbf"
p2205
tp2206
Rp2207
ssI40000
(dp2208
g3
g4
(g8
S'B\x8c\x96\x08\x1c7u>'
p2209
tp2210
Rp2211
sg14
F-0.01241323
sg15
F-0.01241352
sg16
g4
(g8
S'\xff\x1ds\x97(l\x89\xbf'
p2212
tp2213
Rp2214
ssI4000
(dp2215
g3
g4
(g8
S'\x1f\xd4_\xb9\xa9\xf4x>'
p2216
tp2217
Rp2218
sg14
F-0.001227096
sg15
F-0.001227526
sg16
g4
(g8
S'\x85\x9f\xa7\xe07\x1bT\xbf'
p2219
tp2220
Rp2221
ssI200
(dp2222
g3
g4
(g8
S'\xb8\xcf\x1e\x1e*\x02P>'
p2223
tp2224
Rp2225
sg14
F-4.692383e-05
sg15
F-4.697692e-05
sg16
g4
(g8
S'\xeb\xb3}\xcb\xf5\x9c\x08\xbf'
p2226
tp2227
Rp2228
ssI75
(dp2229
g3
g4
(g8
S'\xbcf\xfa\xae\x9c\x90V>'
p2230
tp2231
Rp2232
sg14
F-8.006307e-06
sg15
F-8.084085e-06
sg16
g4
(g8
S'QR\x0c"U\xdd\xe0\xbe'
p2233
tp2234
Rp2235
ssI34000
(dp2236
g3
g4
(g8
S')\xce\xf5\xbe\xe4\xafb>'
p2237
tp2238
Rp2239
sg14
F-0.01054757
sg15
F-0.0105477
sg16
g4
(g8
S'\xf0St\xa6\xff\x99\x85\xbf'
p2240
tp2241
Rp2242
ssI7000
(dp2243
g3
g4
(g8
S'e\xc6\x1e\x1e\xb9x^>'
p2244
tp2245
Rp2246
sg14
F-0.002158906
sg15
F-0.002159015
sg16
g4
(g8
S'\x00\xea.\x1b\xa9\xafa\xbf'
p2247
tp2248
Rp2249
ssI28000
(dp2250
g3
g4
(g8
S'\xa9\x19\x06\xf1\xff#W>'
p2251
tp2252
Rp2253
sg14
F-0.00868309
sg15
F-0.008683177
sg16
g4
(g8
S'\x0e\xe4)\x82v\xc8\x81\xbf'
p2254
tp2255
Rp2256
ssI10000
(dp2257
g3
g4
(g8
S'\xcb\xd4\x9fk"\xbf[>'
p2258
tp2259
Rp2260
sg14
F-0.003090646
sg15
F-0.003090755
sg16
g4
(g8
S'0\x8bFC\xb1Qi\xbf'
p2261
tp2262
Rp2263
ssI100
(dp2264
g3
g4
(g8
S'\x8d\xa1\xf1\xa5\xa2\x91Q>'
p2265
tp2266
Rp2267
sg14
F-1.588065e-05
sg15
F-1.593605e-05
sg16
g4
(g8
S'\x05\x9exM\xfa\xad\xf0\xbe'
p2268
tp2269
Rp2270
ssI1000
(dp2271
g3
g4
(g8
S'/\xc3\xbd\xd3]\x06p>'
p2272
tp2273
Rp2274
sg14
F-0.0002951167
sg15
F-0.0002953786
sg16
g4
(g8
S'\xdc\x1fn\xbf\x88X3\xbf'
p2275
tp2276
Rp2277
ssI22000
(dp2278
g3
g4
(g8
S'\x93{r4tyT>'
p2279
tp2280
Rp2281
sg14
F-0.006819014
sg15
F-0.006819083
sg16
g4
(g8
S'\xce\xa9\x97\xf1L\xee{\xbf'
p2282
tp2283
Rp2284
ssI500
(dp2285
g3
g4
(g8
S'\xb0\x80\xb9\x8b\x81\xafR>'
p2286
tp2287
Rp2288
sg14
F-0.0001399184
sg15
F-0.0001399896
sg16
g4
(g8
S'O\xc0,\xe2XX"\xbf'
p2289
tp2290
Rp2291
sssI13
(dp2292
I0
(dp2293
g3
g4
(g8
S'\x02\x1d\xac+\x82va>'
p2294
tp2295
Rp2296
sg14
F1.479841e-05
sg15
F1.468813e-05
sg16
g4
(g8
S'\xde\xbfuz5\xf1\xee>'
p2297
tp2298
Rp2299
ssI16000
(dp2300
g3
g4
(g8
S';\xf4\xb0A\xf9\xf6O>'
p2301
tp2302
Rp2303
sg14
F-0.00495795
sg15
F-0.004958006
sg16
g4
(g8
S'\xe0\xbd\xe4\xfa\xd1Nt\xbf'
p2304
tp2305
Rp2306
ssI900
(dp2307
g3
g4
(g8
S'\xf8\xbfO\xbb0\xe2a>'
p2308
tp2309
Rp2310
sg14
F-0.0002646459
sg15
F-0.0002647993
sg16
g4
(g8
S'G|\x15:\xe2Y1\xbf'
p2311
tp2312
Rp2313
ssI37000
(dp2314
g3
g4
(g8
S'\xe5\x94b\xba\xc7\xfaq>'
p2315
tp2316
Rp2317
sg14
F-0.01148118
sg15
F-0.01148142
sg16
g4
(g8
S'\x86\xd6\xb4\x9d}\x83\x87\xbf'
p2318
tp2319
Rp2320
ssI400
(dp2321
g3
g4
(g8
S'\xfc\x9ep\xde\xc8\xe1H>'
p2322
tp2323
Rp2324
sg14
F-0.0001093969
sg15
F-0.0001094462
sg16
g4
(g8
S'\x9b\xcdR\xf0\xfd\xae\x1c\xbf'
p2325
tp2326
Rp2327
ssI600
(dp2328
g3
g4
(g8
S'\x85r\xa2\xb0N0S>'
p2329
tp2330
Rp2331
sg14
F-0.0001717304
sg15
F-0.0001717899
sg16
g4
(g8
S'\xed\x91\xcf\xe8\\\x83&\xbf'
p2332
tp2333
Rp2334
ssI31000
(dp2335
g3
g4
(g8
S'Dn2<]\x90^>'
p2336
tp2337
Rp2338
sg14
F-0.009617217
sg15
F-0.009617307
sg16
g4
(g8
S'Q\xb2\xcf\xfb6\xb2\x83\xbf'
p2339
tp2340
Rp2341
ssI25
(dp2342
g3
g4
(g8
S'g\xc32\x02\xb1.S>'
p2343
tp2344
Rp2345
sg14
F7.266646e-06
sg15
F7.196094e-06
sg16
g4
(g8
S'\xfb\x99Yi\xd2[\xde>'
p2346
tp2347
Rp2348
ssI800
(dp2349
g3
g4
(g8
S'o/\xc0\x11\xc3\xc3u>'
p2350
tp2351
Rp2352
sg14
F-0.0002333934
sg15
F-0.0002337447
sg16
g4
(g8
S'\xdf\x00q\rZ\xa1.\xbf'
p2353
tp2354
Rp2355
ssI25000
(dp2356
g3
g4
(g8
S'x \r\x1eE X>'
p2357
tp2358
Rp2359
sg14
F-0.007753499
sg15
F-0.007753574
sg16
g4
(g8
S"-'\xf9{)\xc2\x7f\xbf"
p2360
tp2361
Rp2362
ssI300
(dp2363
g3
g4
(g8
S'\x1d^i>\xd1\xb4W>'
p2364
tp2365
Rp2366
sg14
F-7.81871e-05
sg15
F-7.828142e-05
sg16
g4
(g8
S'o\xd5)\xa4\x8c\x82\x14\xbf'
p2367
tp2368
Rp2369
ssI13000
(dp2370
g3
g4
(g8
S'\xa8\xb6\x04\xdd\xb8\xabY>'
p2371
tp2372
Rp2373
sg14
F-0.004025578
sg15
F-0.004025655
sg16
g4
(g8
S')@\xd9u*}p\xbf'
p2374
tp2375
Rp2376
ssI50
(dp2377
g3
g4
(g8
S'\xee5\xe7%v\xdaN>'
p2378
tp2379
Rp2380
sg14
F-5.941654e-07
sg15
F-6.412817e-07
sg16
g4
(g8
S'\x94\x82tK\x1b\xab\xa4\xbe'
p2381
tp2382
Rp2383
ssI19000
(dp2384
g3
g4
(g8
S'O\x88\xe1\xa9\x14;U>'
p2385
tp2386
Rp2387
sg14
F-0.00588966
sg15
F-0.005889731
sg16
g4
(g8
S'\xa9_\xae\xac\xc9\x1fx\xbf'
p2388
tp2389
Rp2390
ssI700
(dp2391
g3
g4
(g8
S'c\xfa\xc9-]%m>'
p2392
tp2393
Rp2394
sg14
F-0.0002024042
sg15
F-0.0002026526
sg16
g4
(g8
S'\x8c\\\x83.\xfb\x8d*\xbf'
p2395
tp2396
Rp2397
ssI40000
(dp2398
g3
g4
(g8
S'eY\xad\x89\x98Xt>'
p2399
tp2400
Rp2401
sg14
F-0.01241309
sg15
F-0.01241339
sg16
g4
(g8
S'\xd57\xe6\xfa\x15l\x89\xbf'
p2402
tp2403
Rp2404
ssI4000
(dp2405
g3
g4
(g8
S'\xc7\xc2\x8cK\x19\xb5d>'
p2406
tp2407
Rp2408
sg14
F-0.001228238
sg15
F-0.001228409
sg16
g4
(g8
S'\x9a\xffO{\xcf\x1fT\xbf'
p2409
tp2410
Rp2411
ssI200
(dp2412
g3
g4
(g8
S'\xff\xfe\xc2H\x1e\xb2L>'
p2413
tp2414
Rp2415
sg14
F-4.7104e-05
sg15
F-4.715809e-05
sg16
g4
(g8
S'p\x7f\xe4\xaf\xbe\xb5\x08\xbf'
p2416
tp2417
Rp2418
ssI75
(dp2419
g3
g4
(g8
S'n\xa1\xb1\x82\x05\xa6Z>'
p2420
tp2421
Rp2422
sg14
F-8.512974e-06
sg15
F-8.625099e-06
sg16
g4
(g8
S'~\xa8k\xc2\x01\xf9\xe1\xbe'
p2423
tp2424
Rp2425
ssI34000
(dp2426
g3
g4
(g8
S'f8Q\xc7\xf5an>'
p2427
tp2428
Rp2429
sg14
F-0.01054895
sg15
F-0.01054914
sg16
g4
(g8
S'\x9a\xce\xb6\xe9\xbb\x9a\x85\xbf'
p2430
tp2431
Rp2432
ssI7000
(dp2433
g3
g4
(g8
S'\x95HS\x83n\xd4b>'
p2434
tp2435
Rp2436
sg14
F-0.002160566
sg15
F-0.002160675
sg16
g4
(g8
S'\x0e\xc8\xcb\x8b-\xb3a\xbf'
p2437
tp2438
Rp2439
ssI28000
(dp2440
g3
g4
(g8
S'\xdb\x12\xd6H3\x95`>'
p2441
tp2442
Rp2443
sg14
F-0.008685241
sg15
F-0.008685354
sg16
g4
(g8
S'$\xdbrQ\x97\xc9\x81\xbf'
p2444
tp2445
Rp2446
ssI10000
(dp2447
g3
g4
(g8
S'RKc`!\x16S>'
p2448
tp2449
Rp2450
sg14
F-0.003093231
sg15
F-0.003093292
sg16
g4
(g8
S'\x91\xe0\xc0\xfe\x08Wi\xbf'
p2451
tp2452
Rp2453
ssI100
(dp2454
g3
g4
(g8
S'\xca\x9e\xc5\xe2C\xc2Q>'
p2455
tp2456
Rp2457
sg14
F-1.636837e-05
sg15
F-1.643383e-05
sg16
g4
(g8
S'\xfe,\x9e\x9b\x19/\xf1\xbe'
p2458
tp2459
Rp2460
ssI1000
(dp2461
g3
g4
(g8
S'\x1e\xdb\x9f\x18,Ar>'
p2462
tp2463
Rp2464
sg14
F-0.0002959231
sg15
F-0.000296224
sg16
g4
(g8
S'B\xe6\x96\xc2\xa9e3\xbf'
p2465
tp2466
Rp2467
ssI22000
(dp2468
g3
g4
(g8
S'\x97r\x8d\x01y\xbaV>'
p2469
tp2470
Rp2471
sg14
F-0.006821468
sg15
F-0.006821531
sg16
g4
(g8
S'\xf0\xbb:d\xdc\xf0{\xbf'
p2472
tp2473
Rp2474
ssI500
(dp2475
g3
g4
(g8
S"g\xbbf\x15'>L>"
p2476
tp2477
Rp2478
sg14
F-0.0001405847
sg15
F-0.0001406327
sg16
g4
(g8
S'|\x8d@\x06\x1an"\xbf'
p2479
tp2480
Rp2481
sssI14
(dp2482
I0
(dp2483
g3
g4
(g8
S'g\xdd\x0770\xa0j>'
p2484
tp2485
Rp2486
sg14
F1.37109e-05
sg15
F1.356506e-05
sg16
g4
(g8
S':\xe54/\xdb\x95\xec>'
p2487
tp2488
Rp2489
ssI16000
(dp2490
g3
g4
(g8
S's\x7f\xc2G\x8d\xbcZ>'
p2491
tp2492
Rp2493
sg14
F-0.004955309
sg15
F-0.004955396
sg16
g4
(g8
S'u\xc2L\x95\x0fLt\xbf'
p2494
tp2495
Rp2496
ssI900
(dp2497
g3
g4
(g8
S'\x19`\xa0\xb0\xf7\xebq>'
p2498
tp2499
Rp2500
sg14
F-0.0002660759
sg15
F-0.0002663738
sg16
g4
(g8
S'\xb2\xd97\x82\x08q1\xbf'
p2501
tp2502
Rp2503
ssI37000
(dp2504
g3
g4
(g8
S'\x97\xa8\x19\x04,\xbdn>'
p2505
tp2506
Rp2507
sg14
F-0.01147983
sg15
F-0.01148002
sg16
g4
(g8
S'E&=a\xc5\x82\x87\xbf'
p2508
tp2509
Rp2510
ssI400
(dp2511
g3
g4
(g8
S'\xb9\xbbr\xb4\xc5ga>'
p2512
tp2513
Rp2514
sg14
F-0.0001107696
sg15
F-0.0001108829
sg16
g4
(g8
S'V?D\xb9\n\r\x1d\xbf'
p2515
tp2516
Rp2517
ssI600
(dp2518
g3
g4
(g8
S'\x03\xca\xbd`\xc9>\\>'
p2519
tp2520
Rp2521
sg14
F-0.0001726732
sg15
F-0.000172777
sg16
g4
(g8
S'\x97\xc7;\x0c\xa1\xa3&\xbf'
p2522
tp2523
Rp2524
ssI31000
(dp2525
g3
g4
(g8
S'\xa0\x98\xb3\xce.Gg>'
p2526
tp2527
Rp2528
sg14
F-0.009616307
sg15
F-0.009616453
sg16
g4
(g8
S'\x9d\x91\x0ew\xbe\xb1\x83\xbf'
p2529
tp2530
Rp2531
ssI25
(dp2532
g3
g4
(g8
S"'~\rA\x03%`>"
p2533
tp2534
Rp2535
sg14
F5.847838e-06
sg15
F5.733963e-06
sg16
g4
(g8
S'a\r\xe5\xa6\xd5S\xd8>'
p2536
tp2537
Rp2538
ssI800
(dp2539
g3
g4
(g8
S'\x08\xaa\x01\xac\x1fun>'
p2540
tp2541
Rp2542
sg14
F-0.0002347859
sg15
F-0.0002350252
sg16
g4
(g8
S'u.\xfdFr\xcc.\xbf'
p2543
tp2544
Rp2545
ssI25000
(dp2546
g3
g4
(g8
S'b\xbe\x1c\xac\x85\xe5`>'
p2547
tp2548
Rp2549
sg14
F-0.007751944
sg15
F-0.007752052
sg16
g4
(g8
S'K\x83\xabX\x8d\xc0\x7f\xbf'
p2550
tp2551
Rp2552
ssI300
(dp2553
g3
g4
(g8
S'\x02\x83\xf0LGJ\\>'
p2554
tp2555
Rp2556
sg14
F-7.965167e-05
sg15
F-7.976408e-05
sg16
g4
(g8
S'\x12\r2\xc9\x15\xe5\x14\xbf'
p2557
tp2558
Rp2559
ssI13000
(dp2560
g3
g4
(g8
S'\xc4\x9f6-\r\xc9Z>'
p2561
tp2562
Rp2563
sg14
F-0.004023936
sg15
F-0.004024027
sg16
g4
(g8
S'\x8a\x80\xd91t{p\xbf'
p2564
tp2565
Rp2566
ssI50
(dp2567
g3
g4
(g8
S',\x84[}W\xcbX>'
p2568
tp2569
Rp2570
sg14
F-2.019803e-06
sg15
F-2.100816e-06
sg16
g4
(g8
S'\xc9\x02pazJ\xc1\xbe'
p2571
tp2572
Rp2573
ssI19000
(dp2574
g3
g4
(g8
S'\xe0\xf4\xaa\xdd~;R>'
p2575
tp2576
Rp2577
sg14
F-0.005887593
sg15
F-0.005887654
sg16
g4
(g8
S'\xf5\xae\x1d\xee\xa0\x1dx\xbf'
p2578
tp2579
Rp2580
ssI700
(dp2581
g3
g4
(g8
S'\xe5|\xe93|\x1ec>'
p2582
tp2583
Rp2584
sg14
F-0.0002036254
sg15
F-0.0002037767
sg16
g4
(g8
S'\xa6>U\xdb>\xb4*\xbf'
p2585
tp2586
Rp2587
ssI40000
(dp2588
g3
g4
(g8
S'\x86K/2t\x8aw>'
p2589
tp2590
Rp2591
sg14
F-0.0124118
sg15
F-0.01241213
sg16
g4
(g8
S'\xc6\xecK\x87ek\x89\xbf'
p2592
tp2593
Rp2594
ssI4000
(dp2595
g3
g4
(g8
S'Z\x87\xde\xdb\xfb\x95x>'
p2596
tp2597
Rp2598
sg14
F-0.001228798
sg15
F-0.001229224
sg16
g4
(g8
S'I2)\x89^"T\xbf'
p2599
tp2600
Rp2601
ssI200
(dp2602
g3
g4
(g8
S'S@\xfa}\x9f@Z>'
p2603
tp2604
Rp2605
sg14
F-4.850666e-05
sg15
F-4.859494e-05
sg16
g4
(g8
S'\xa2\x95M\x05\x91r\t\xbf'
p2606
tp2607
Rp2608
ssI75
(dp2609
g3
g4
(g8
S'\x91\x14\xbe\x14\xd5&`>'
p2610
tp2611
Rp2612
sg14
F-9.806976e-06
sg15
F-9.916197e-06
sg16
g4
(g8
S'\xff\xd0\x03\x8f:\xac\xe4\xbe'
p2613
tp2614
Rp2615
ssI34000
(dp2616
g3
g4
(g8
S'|\xd9\xd4\xf6-\xb8q>'
p2617
tp2618
Rp2619
sg14
F-0.01054766
sg15
F-0.01054788
sg16
g4
(g8
S'\xd3]\xcf\x93\x0f\x9a\x85\xbf'
p2620
tp2621
Rp2622
ssI7000
(dp2623
g3
g4
(g8
S'\xf2U\xc1\x84 w]>'
p2624
tp2625
Rp2626
sg14
F-0.002160373
sg15
F-0.00216047
sg16
g4
(g8
S'em\xacn\xb6\xb2a\xbf'
p2627
tp2628
Rp2629
ssI28000
(dp2630
g3
g4
(g8
S'\xc9\xf4\x9a\x8cT\\h>'
p2631
tp2632
Rp2633
sg14
F-0.008683982
sg15
F-0.008684143
sg16
g4
(g8
S'l\xc8Z&\xf2\xc8\x81\xbf'
p2634
tp2635
Rp2636
ssI10000
(dp2637
g3
g4
(g8
S'\x92\xa5\xd3\xb5\xe9\xf2c>'
p2638
tp2639
Rp2640
sg14
F-0.003092356
sg15
F-0.003092488
sg16
g4
(g8
S'k}LEUUi\xbf'
p2641
tp2642
Rp2643
ssI100
(dp2644
g3
g4
(g8
S'V\xc3{9\x8e$b>'
p2645
tp2646
Rp2647
sg14
F-1.731389e-05
sg15
F-1.742848e-05
sg16
g4
(g8
S'\xafa\xcf#%2\xf2\xbe'
p2648
tp2649
Rp2650
ssI1000
(dp2651
g3
g4
(g8
S'\x17\xca\xd7\x90\xa0\xa0p>'
p2652
tp2653
Rp2654
sg14
F-0.0002968343
sg15
F-0.0002971056
sg16
g4
(g8
S'\xd7\x97w\x06\x03u3\xbf'
p2655
tp2656
Rp2657
ssI22000
(dp2658
g3
g4
(g8
S'\xc5\x00m\x85O\xa9c>'
p2659
tp2660
Rp2661
sg14
F-0.006819732
sg15
F-0.006819857
sg16
g4
(g8
S'\x0c?\x93\x1b\r\xef{\xbf'
p2662
tp2663
Rp2664
ssI500
(dp2665
g3
g4
(g8
S'\xab\x1aV\x1e\xa5\xe7T>'
p2666
tp2667
Rp2668
sg14
F-0.0001415822
sg15
F-0.0001416469
sg16
g4
(g8
S'\xe9\x98Fl\xed\x8f"\xbf'
p2669
tp2670
Rp2671
sssI15
(dp2672
I0
(dp2673
g3
g4
(g8
S'Y\x888P\xdc\xccb>'
p2674
tp2675
Rp2676
sg14
F1.601252e-05
sg15
F1.589716e-05
sg16
g4
(g8
S'\x82b\xd3V\x8b\xbb\xf0>'
p2677
tp2678
Rp2679
ssI16000
(dp2680
g3
g4
(g8
S'm\x10\xb8`u\x86H>'
p2681
tp2682
Rp2683
sg14
F-0.004957646
sg15
F-0.004957691
sg16
g4
(g8
S'\x15\xd3S\x8c}Nt\xbf'
p2684
tp2685
Rp2686
ssI900
(dp2687
g3
g4
(g8
S'\xdfR\xc0\xbe\xdf\x7fj>'
p2688
tp2689
Rp2690
sg14
F-0.0002638499
sg15
F-0.0002640665
sg16
g4
(g8
S'\xc6\x97\x10\x11fK1\xbf'
p2691
tp2692
Rp2693
ssI37000
(dp2694
g3
g4
(g8
S'\xb2\x9e\xecgo\x10Y>'
p2695
tp2696
Rp2697
sg14
F-0.0114825
sg15
F-0.01148259
sg16
g4
(g8
S'\xa6\x19c@(\x84\x87\xbf'
p2698
tp2699
Rp2700
ssI400
(dp2701
g3
g4
(g8
S'p\x98\xdf\x97\xc3\xa8]>'
p2702
tp2703
Rp2704
sg14
F-0.0001084809
sg15
F-0.000108581
sg16
g4
(g8
S'\xce\xde\xe3\xe0&s\x1c\xbf'
p2705
tp2706
Rp2707
ssI600
(dp2708
g3
g4
(g8
S'\x88\x8a\xd9j\x1fzW>'
p2709
tp2710
Rp2711
sg14
F-0.0001701944
sg15
F-0.0001702735
sg16
g4
(g8
S'W\x980\xa22P&\xbf'
p2712
tp2713
Rp2714
ssI31000
(dp2715
g3
g4
(g8
S'i>\xaf&\x85s]>'
p2716
tp2717
Rp2718
sg14
F-0.009618849
sg15
F-0.00961895
sg16
g4
(g8
S'\xbe\xdc{:\x10\xb3\x83\xbf'
p2719
tp2720
Rp2721
ssI25
(dp2722
g3
g4
(g8
S'{6}vD\xced>'
p2723
tp2724
Rp2725
sg14
F8.316003e-06
sg15
F8.187109e-06
sg16
g4
(g8
S'@\x00\xae\xee\x14J\xe1>'
p2726
tp2727
Rp2728
ssI800
(dp2729
g3
g4
(g8
S'r\x98n\xb1\xd3\xb5m>'
p2730
tp2731
Rp2732
sg14
F-0.0002325967
sg15
F-0.0002328329
sg16
g4
(g8
S"\xc0'[\x81\xfc\x82.\xbf"
p2733
tp2734
Rp2735
ssI25000
(dp2736
g3
g4
(g8
S'h\xf9\xb13\x8a\x10Y>'
p2737
tp2738
Rp2739
sg14
F-0.007754379
sg15
F-0.007754458
sg16
g4
(g8
S'V\xbc\xb4\xd1\x17\xc3\x7f\xbf'
p2740
tp2741
Rp2742
ssI300
(dp2743
g3
g4
(g8
S'\xbd\x89\t^\xbd{_>'
p2744
tp2745
Rp2746
sg14
F-7.736236e-05
sg15
F-7.744838e-05
sg16
g4
(g8
S'e\xd5\x7f\x81\x14K\x14\xbf'
p2747
tp2748
Rp2749
ssI13000
(dp2750
g3
g4
(g8
S'6\xd1\x87)\xf0\xc2a>'
p2751
tp2752
Rp2753
sg14
F-0.004024703
sg15
F-0.004024814
sg16
g4
(g8
S'\xe8\xcf\xf4\x1fD|p\xbf'
p2754
tp2755
Rp2756
ssI50
(dp2757
g3
g4
(g8
S'\xd4\xe1\x86n\xf8\xbeR>'
p2758
tp2759
Rp2760
sg14
F4.776869e-07
sg15
F4.123128e-07
sg16
g4
(g8
S'\x0c\x98+~\x18Y\x9e>'
p2761
tp2762
Rp2763
ssI19000
(dp2764
g3
g4
(g8
S'f\x8a\xd9-\xe5\xf3_>'
p2765
tp2766
Rp2767
sg14
F-0.005890234
sg15
F-0.005890334
sg16
g4
(g8
S'\x85\xe1\xa6\xb2i x\xbf'
p2768
tp2769
Rp2770
ssI700
(dp2771
g3
g4
(g8
S'\x03\x02\xec\xc3\xc1|s>'
p2772
tp2773
Rp2774
sg14
F-0.0002011197
sg15
F-0.0002014371
sg16
g4
(g8
S'`\xe3\x87\xaaBe*\xbf'
p2775
tp2776
Rp2777
ssI40000
(dp2778
g3
g4
(g8
S'Uw\x1fI"=p>'
p2779
tp2780
Rp2781
sg14
F-0.01241382
sg15
F-0.012414
sg16
g4
(g8
S'\x87\xc6\x8e sl\x89\xbf'
p2782
tp2783
Rp2784
ssI4000
(dp2785
g3
g4
(g8
S'\xb0y\x8d\xcbc{W>'
p2786
tp2787
Rp2788
sg14
F-0.001227621
sg15
F-0.001227699
sg16
g4
(g8
S'\x1f\xeb\x9a\xaa*\x1dT\xbf'
p2789
tp2790
Rp2791
ssI200
(dp2792
g3
g4
(g8
S'7G\\\x89\x7faP>'
p2793
tp2794
Rp2795
sg14
F-4.61959e-05
sg15
F-4.624892e-05
sg16
g4
(g8
S'\xa9\xf7\xa7\x05=<\x08\xbf'
p2796
tp2797
Rp2798
ssI75
(dp2799
g3
g4
(g8
S'l\xf2\xc5?\x14Me>'
p2800
tp2801
Rp2802
sg14
F-6.948293e-06
sg15
F-7.077909e-06
sg16
g4
(g8
S'L\xbf\x055\x8br\xdd\xbe'
p2803
tp2804
Rp2805
ssI34000
(dp2806
g3
g4
(g8
S'c\t\x92\x93\x98\xfdk>'
p2807
tp2808
Rp2809
sg14
F-0.01055086
sg15
F-0.01055103
sg16
g4
(g8
S'\x16O\x16#\xb9\x9b\x85\xbf'
p2810
tp2811
Rp2812
ssI7000
(dp2813
g3
g4
(g8
S'\x0eH\x07[\x95\x8ce>'
p2814
tp2815
Rp2816
sg14
F-0.002159895
sg15
F-0.002160054
sg16
g4
(g8
S'\xbb\xfa\x85[\xdd\xb1a\xbf'
p2817
tp2818
Rp2819
ssI28000
(dp2820
g3
g4
(g8
S'\xfeK\xfa\xa8Q\x95`>'
p2821
tp2822
Rp2823
sg14
F-0.0086864
sg15
F-0.008686495
sg16
g4
(g8
S'\xfe\x92S\x073\xca\x81\xbf'
p2824
tp2825
Rp2826
ssI10000
(dp2827
g3
g4
(g8
S'\xf89\xeer.\xe0`>'
p2828
tp2829
Rp2830
sg14
F-0.003092121
sg15
F-0.003092234
sg16
g4
(g8
S'*+\xfc\x0e\xc1Ti\xbf'
p2831
tp2832
Rp2833
ssI100
(dp2834
g3
g4
(g8
S'|\x1e\x1b\xd6L\xfdY>'
p2835
tp2836
Rp2837
sg14
F-1.488436e-05
sg15
F-1.498166e-05
sg16
g4
(g8
S')3H\xecXI\xef\xbe'
p2838
tp2839
Rp2840
ssI1000
(dp2841
g3
g4
(g8
S'@\xd2U\x9fBmq>'
p2842
tp2843
Rp2844
sg14
F-0.000294518
sg15
F-0.000294827
sg16
g4
(g8
S'\tzl[\xeaN3\xbf'
p2845
tp2846
Rp2847
ssI22000
(dp2848
g3
g4
(g8
S'\x1a\xb0\xa4\xc2\xcc\x19\\>'
p2849
tp2850
Rp2851
sg14
F-0.006822332
sg15
F-0.006822429
sg16
g4
(g8
S'\xdc\xa2\xb0t\xc9\xf1{\xbf'
p2852
tp2853
Rp2854
ssI500
(dp2855
g3
g4
(g8
S'\xad\xa0a3\x0b\x8aX>'
p2856
tp2857
Rp2858
sg14
F-0.0001391491
sg15
F-0.0001392391
sg16
g4
(g8
S'\xc1[\x84G\xb2>"\xbf'
p2859
tp2860
Rp2861
sssI16
(dp2862
I0
(dp2863
g3
g4
(g8
S'k\xf4]\x80\xaaD`>'
p2864
tp2865
Rp2866
sg14
F1.277939e-05
sg15
F1.268791e-05
sg16
g4
(g8
S'a\x8d\x88\x82\n\xb6\xea>'
p2867
tp2868
Rp2869
ssI16000
(dp2870
g3
g4
(g8
S'z\xbc\xcc\xea\x98\xbdb>'
p2871
tp2872
Rp2873
sg14
F-0.00495694
sg15
F-0.004957085
sg16
g4
(g8
S'.\xa6\xbdk\xceMt\xbf'
p2874
tp2875
Rp2876
ssI900
(dp2877
g3
g4
(g8
S'3\xe4\x1e!\xbc\x18f>'
p2878
tp2879
Rp2880
sg14
F-0.0002664024
sg15
F-0.0002665763
sg16
g4
(g8
S'G\xc9\x15B\x1fv1\xbf'
p2881
tp2882
Rp2883
ssI37000
(dp2884
g3
g4
(g8
S'\xb8hN\x11\x88wt>'
p2885
tp2886
Rp2887
sg14
F-0.01148296
sg15
F-0.01148324
sg16
g4
(g8
S'd\xaa\xaa\xe1l\x84\x87\xbf'
p2888
tp2889
Rp2890
ssI400
(dp2891
g3
g4
(g8
S'\xfaE\xf8\x10cOO>'
p2892
tp2893
Rp2894
sg14
F-0.0001112397
sg15
F-0.0001112918
sg16
g4
(g8
S'\xa3)\xc2\xe6[+\x1d\xbf'
p2895
tp2896
Rp2897
ssI600
(dp2898
g3
g4
(g8
S'?\x9f\xdd\x0b\xb5\xe7Q>'
p2899
tp2900
Rp2901
sg14
F-0.0001734706
sg15
F-0.0001735336
sg16
g4
(g8
S'\xa6c\xcd\x13\xd8\xbd&\xbf'
p2902
tp2903
Rp2904
ssI31000
(dp2905
g3
g4
(g8
S'\xb6\xdf=\x9f\xa8\x9cf>'
p2906
tp2907
Rp2908
sg14
F-0.009618417
sg15
F-0.00961856
sg16
g4
(g8
S'C(V\xd3\xd9\xb2\x83\xbf'
p2909
tp2910
Rp2911
ssI25
(dp2912
g3
g4
(g8
S'\x95\x18\xa9\xb0\x01nX>'
p2913
tp2914
Rp2915
sg14
F5.008078e-06
sg15
F4.929509e-06
sg16
g4
(g8
S'7\x01\x82\x10\xb1\xcd\xd4>'
p2916
tp2917
Rp2918
ssI800
(dp2919
g3
g4
(g8
S'\x11\xc1:\x9f/\x88q>'
p2920
tp2921
Rp2922
sg14
F-0.0002352996
sg15
F-0.0002355953
sg16
g4
(g8
S'~\x9d\xa89\xd2\xd9.\xbf'
p2923
tp2924
Rp2925
ssI25000
(dp2926
g3
g4
(g8
S'\x1b\xfc\x88\xa0\x1c\rZ>'
p2927
tp2928
Rp2929
sg14
F-0.007753923
sg15
F-0.007754008
sg16
g4
(g8
S'\x93"\xa8\x0f\xa0\xc2\x7f\xbf'
p2930
tp2931
Rp2932
ssI300
(dp2933
g3
g4
(g8
S'\xdb\xed^QF]S>'
p2934
tp2935
Rp2936
sg14
F-7.993417e-05
sg15
F-8.001229e-05
sg16
g4
(g8
S'\x04\x9b;5h\xf6\x14\xbf'
p2937
tp2938
Rp2939
ssI13000
(dp2940
g3
g4
(g8
S'\xceJ-i\xc2\xdba>'
p2941
tp2942
Rp2943
sg14
F-0.004024999
sg15
F-0.004025121
sg16
g4
(g8
S'\x86\x1dA\x84\x96|p\xbf'
p2944
tp2945
Rp2946
ssI50
(dp2947
g3
g4
(g8
S'KUZp6OV>'
p2948
tp2949
Rp2950
sg14
F-2.512314e-06
sg15
F-2.588383e-06
sg16
g4
(g8
S'\xa0\xa4\x97-)`\xc5\xbe'
p2951
tp2952
Rp2953
ssI19000
(dp2954
g3
g4
(g8
S'\x80\xad\x1cg\xd6\x85a>'
p2955
tp2956
Rp2957
sg14
F-0.005889033
sg15
F-0.005889144
sg16
g4
(g8
S'\x94-\xf1\xcf)\x1fx\xbf'
p2958
tp2959
Rp2960
ssI700
(dp2961
g3
g4
(g8
S'6\x9c\xf0\xb6c\xa0r>'
p2962
tp2963
Rp2964
sg14
F-0.0002045696
sg15
F-0.0002048695
sg16
g4
(g8
S'\x92\xee\xad\xab\x01\xd2*\xbf'
p2965
tp2966
Rp2967
ssI40000
(dp2968
g3
g4
(g8
S'B] f\x10\xf6|>'
p2969
tp2970
Rp2971
sg14
F-0.01241485
sg15
F-0.01241527
sg16
g4
(g8
S'6\xc8=\xc0\x07m\x89\xbf'
p2972
tp2973
Rp2974
ssI4000
(dp2975
g3
g4
(g8
S'2\x97\x0e\xa7\x12;r>'
p2976
tp2977
Rp2978
sg14
F-0.001229193
sg15
F-0.001229476
sg16
g4
(g8
S'\xf1\x86\xf1\xe8x$T\xbf'
p2979
tp2980
Rp2981
ssI200
(dp2982
g3
g4
(g8
S'\xdd\x9e\x83:oK\\>'
p2983
tp2984
Rp2985
sg14
F-4.947021e-05
sg15
F-4.95622e-05
sg16
g4
(g8
S'\x9e\xef:+\xb8\xf6\t\xbf'
p2986
tp2987
Rp2988
ssI75
(dp2989
g3
g4
(g8
S'\r\x87\x13AN<`>'
p2990
tp2991
Rp2992
sg14
F-1.049147e-05
sg15
F-1.058789e-05
sg16
g4
(g8
S'\xf1\xef\x01\x89\xaf\x1f\xe6\xbe'
p2993
tp2994
Rp2995
ssI34000
(dp2996
g3
g4
(g8
S' F\xf1a\x0fGs>'
p2997
tp2998
Rp2999
sg14
F-0.01055037
sg15
F-0.01055062
sg16
g4
(g8
S'\x81\xaa\xe8Gw\x9b\x85\xbf'
p3000
tp3001
Rp3002
ssI7000
(dp3003
g3
g4
(g8
S'}6\xa2(\x196f>'
p3004
tp3005
Rp3006
sg14
F-0.002160919
sg15
F-0.002161067
sg16
g4
(g8
S'P#\xd1m\x00\xb4a\xbf'
p3007
tp3008
Rp3009
ssI28000
(dp3010
g3
g4
(g8
S'\xfc\x19XT\xed\xc2Z>'
p3011
tp3012
Rp3013
sg14
F-0.008686017
sg15
F-0.008686109
sg16
g4
(g8
S'\xb7C\x93\xa3\xfe\xc9\x81\xbf'
p3014
tp3015
Rp3016
ssI10000
(dp3017
g3
g4
(g8
S'\x9fR\xb2\xf5\xca=g>'
p3018
tp3019
Rp3020
sg14
F-0.003093082
sg15
F-0.003093235
sg16
g4
(g8
S'\xe4Co\x7f\xd8Vi\xbf'
p3021
tp3022
Rp3023
ssI100
(dp3024
g3
g4
(g8
S'\x15\x1e\xbbY\xc6*]>'
p3025
tp3026
Rp3027
sg14
F-1.824515e-05
sg15
F-1.835823e-05
sg16
g4
(g8
S'\x1d\x9aJ\xbb\xd2,\xf3\xbe'
p3028
tp3029
Rp3030
ssI1000
(dp3031
g3
g4
(g8
S'SCV\x91\x89\xa3c>'
p3032
tp3033
Rp3034
sg14
F-0.0002974574
sg15
F-0.0002976077
sg16
g4
(g8
S'\xba\xb0\xce\x92\x1b\x803\xbf'
p3035
tp3036
Rp3037
ssI22000
(dp3038
g3
g4
(g8
S'\xb0\xffqf\x04\x8eY>'
p3039
tp3040
Rp3041
sg14
F-0.006821489
sg15
F-0.006821588
sg16
g4
(g8
S'\x19\xbf\xc2\xa4\xe5\xf0{\xbf'
p3042
tp3043
Rp3044
ssI500
(dp3045
g3
g4
(g8
S'\xb5\xb9\x96h\xa0vS>'
p3046
tp3047
Rp3048
sg14
F-0.0001424007
sg15
F-0.00014246
sg16
g4
(g8
S'\x03\xe2\xbe\xa2\x18\xab"\xbf'
p3049
tp3050
Rp3051
sss.