(dp0
I1
(dp1
S'slope'
p2
F-7.7700872554267075
sS'offset'
p3
F399.6643666598384
ssI2
(dp4
g2
F-7.763779800630398
sg3
F393.8722449234322
ssI3
(dp5
g2
F-7.768296401361798
sg3
F314.2893843389726
ssI4
(dp6
g2
F-7.763873495500107
sg3
F270.7790390763178
ssI5
(dp7
g2
F-7.764511921672204
sg3
F452.67550026579494
ssI6
(dp8
g2
F-7.767226544282953
sg3
F343.51905309238316
ssI7
(dp9
g2
F-7.773240184871664
sg3
F381.36201290456233
ssI8
(dp10
g2
F-7.76195934307609
sg3
F368.68134532456776
ssI9
(dp11
g2
F-7.767600996028728
sg3
F404.6022450391609
ssI10
(dp12
g2
F-7.765480553958367
sg3
F327.496933236024
ssI11
(dp13
g2
F-7.763435229359291
sg3
F368.89181378608686
ssI12
(dp14
g2
F-7.766736946632477
sg3
F300.7841566409621
ssI13
(dp15
g2
F-7.763000614420898
sg3
F303.44588533114916
ssI14
(dp16
g2
F-7.76677526135468
sg3
F267.0989384088914
ssI15
(dp17
g2
F-7.769970808494532
sg3
F360.91797035620726
ssI16
(dp18
g2
F-7.763297641548795
sg3
F341.31990165277614
ss.(dp0
I1
(dp1
I0
(dp2
S'std'
p3
cnumpy.core.multiarray
scalar
p4
(cnumpy
dtype
p5
(S'f8'
p6
I0
I1
tp7
Rp8
(I3
S'<'
p9
NNNI-1
I-1
I0
tp10
bS'C\x87\xa3\x99\xcf\xa3W>'
p11
tp12
Rp13
sS'max'
p14
F1.603631e-05
sS'min'
p15
F1.595981e-05
sS'mean'
p16
g4
(g8
S'\x894\xbb\xf0\xbd\xc3\xf0>'
p17
tp18
Rp19
ssI16000
(dp20
g3
g4
(g8
S'\xf16\x97\xbc\xff\xb1R>'
p21
tp22
Rp23
sg14
F-0.004957341
sg15
F-0.004957398
sg16
g4
(g8
S'm!3\x0e.Nt\xbf'
p24
tp25
Rp26
ssI900
(dp27
g3
g4
(g8
S'/\xdd\xc8)\xb2\x9cz>'
p28
tp29
Rp30
sg14
F-0.0002634478
sg15
F-0.0002638655
sg16
g4
(g8
S'"\xce>&\xc3D1\xbf'
p31
tp32
Rp33
ssI37000
(dp34
g3
g4
(g8
S'\xd1\x97\x1bR\xb9\xb8z>'
p35
tp36
Rp37
sg14
F-0.01147995
sg15
F-0.0114803
sg16
g4
(g8
S';\xa5].\xdd\x82\x87\xbf'
p38
tp39
Rp40
ssI400
(dp41
g3
g4
(g8
S'L\x04\xedTj\x9aa>'
p42
tp43
Rp44
sg14
F-0.0001079143
sg15
F-0.0001080273
sg16
g4
(g8
S'\n\xbeT.\x81N\x1c\xbf'
p45
tp46
Rp47
ssI600
(dp48
g3
g4
(g8
S'\x18\x88#\xb3\x98:M>'
p49
tp50
Rp51
sg14
F-0.0001700843
sg15
F-0.0001701414
sg16
g4
(g8
S' s\xa0\xef\xfaK&\xbf'
p52
tp53
Rp54
ssI31000
(dp55
g3
g4
(g8
S'Q\xf8:\xcbg\x86j>'
p56
tp57
Rp58
sg14
F-0.00961636
sg15
F-0.009616537
sg16
g4
(g8
S'\xe5\xb8\x17\xbf\xc4\xb1\x83\xbf'
p59
tp60
Rp61
ssI25
(dp62
g3
g4
(g8
S'\x92\xe1,N\x1f\xf8Y>'
p63
tp64
Rp65
sg14
F8.47002e-06
sg15
F8.368268e-06
sg16
g4
(g8
S';\xac\xaf\x83\xd1\xa3\xe1>'
p66
tp67
Rp68
ssI800
(dp69
g3
g4
(g8
S'\x1b\xf8\xdc\x19|\xb4|>'
p70
tp71
Rp72
sg14
F-0.0002322545
sg15
F-0.000232702
sg16
g4
(g8
S'T_>G\xfbr.\xbf'
p73
tp74
Rp75
ssI25000
(dp76
g3
g4
(g8
S'Y\x14\x8c\xd9\xd3\x19f>'
p77
tp78
Rp79
sg14
F-0.007753242
sg15
F-0.007753379
sg16
g4
(g8
S'\x9e\x97\xba\x89\xef\xc1\x7f\xbf'
p80
tp81
Rp82
ssI300
(dp83
g3
g4
(g8
S'\xd6\xdd\xb9\x91\xac\xc9Q>'
p84
tp85
Rp86
sg14
F-7.682976e-05
sg15
F-7.689443e-05
sg16
g4
(g8
S'\xba\x82)8\xff%\x14\xbf'
p87
tp88
Rp89
ssI13000
(dp90
g3
g4
(g8
S'};@]\x9b\xb9V>'
p91
tp92
Rp93
sg14
F-0.004024829
sg15
F-0.004024898
sg16
g4
(g8
S'\x069\xb0!`|p\xbf'
p94
tp95
Rp96
ssI50
(dp97
g3
g4
(g8
S'P\xd4\x05[\xdb\xf9X>'
p98
tp99
Rp100
sg14
F6.478514e-07
sg15
F5.59093e-07
sg16
g4
(g8
S'\x84,\x84\x88\\\x1e\xa4>'
p101
tp102
Rp103
ssI19000
(dp104
g3
g4
(g8
S'Q\r_\xd1E\xd5K>'
p105
tp106
Rp107
sg14
F-0.005889313
sg15
F-0.005889365
sg16
g4
(g8
S'\xf6Q\xc5\xcfk\x1fx\xbf'
p108
tp109
Rp110
ssI700
(dp111
g3
g4
(g8
S'\xca[\xe4\x90\x18\xbaq>'
p112
tp113
Rp114
sg14
F-0.0002009329
sg15
F-0.0002012163
sg16
g4
(g8
S"\xa0\xcd\xc7'\x1e^*\xbf"
p115
tp116
Rp117
ssI40000
(dp118
g3
g4
(g8
S'\td\x8e/\x19\xb4~>'
p119
tp120
Rp121
sg14
F-0.01241125
sg15
F-0.01241165
sg16
g4
(g8
S'\x0e\xdbD\x9d!k\x89\xbf'
p122
tp123
Rp124
ssI4000
(dp125
g3
g4
(g8
S'K\xdbcXY\x82j>'
p126
tp127
Rp128
sg14
F-0.001227548
sg15
F-0.001227755
sg16
g4
(g8
S'\x1e\xcbw\x84\xe5\x1cT\xbf'
p129
tp130
Rp131
ssI200
(dp132
g3
g4
(g8
S'\xd7\x9eS\x1b\x159V>'
p133
tp134
Rp135
sg14
F-4.570512e-05
sg15
F-4.577458e-05
sg16
g4
(g8
S'\xa6i\xf0P\x15\xfb\x07\xbf'
p136
tp137
Rp138
ssI75
(dp139
g3
g4
(g8
S'\xb0\x80e+\xaf\xcfS>'
p140
tp141
Rp142
sg14
F-7.052647e-06
sg15
F-7.111552e-06
sg16
g4
(g8
S'\x149\x80C\xd9\xad\xdd\xbe'
p143
tp144
Rp145
ssI34000
(dp146
g3
g4
(g8
S'\xa2\x97\xc6\xee\x82\xbbv>'
p147
tp148
Rp149
sg14
F-0.01054797
sg15
F-0.01054828
sg16
g4
(g8
S'3\xa3\xac\xcf9\x9a\x85\xbf'
p150
tp151
Rp152
ssI7000
(dp153
g3
g4
(g8
S'\xfe\xee3W\xa6\x85K>'
p154
tp155
Rp156
sg14
F-0.002160528
sg15
F-0.002160574
sg16
g4
(g8
S'\x8b\xdf,\x91\x05\xb3a\xbf'
p157
tp158
Rp159
ssI28000
(dp160
g3
g4
(g8
S'\xce=pBN_e>'
p161
tp162
Rp163
sg14
F-0.008684513
sg15
F-0.008684659
sg16
g4
(g8
S'\xee\xa8\xdd\xf06\xc9\x81\xbf'
p164
tp165
Rp166
ssI10000
(dp167
g3
g4
(g8
S'S$\xe0\xde#\xf4I>'
p168
tp169
Rp170
sg14
F-0.00309261
sg15
F-0.003092654
sg16
g4
(g8
S'\x9a\xb3W\x8e\xb8Ui\xbf'
p171
tp172
Rp173
ssI100
(dp174
g3
g4
(g8
S"\x08\xa9(M`'R>"
p175
tp176
Rp177
sg14
F-1.45866e-05
sg15
F-1.464551e-05
sg16
g4
(g8
S'\xd7\xde\x9d\xdc\x81\xa8\xee\xbe'
p178
tp179
Rp180
ssI1000
(dp181
g3
g4
(g8
S'+Y\xdc\xde\x91o}>'
p182
tp183
Rp184
sg14
F-0.0002946996
sg15
F-0.0002951528
sg16
g4
(g8
S'\x99\x07\xa0\xd7\tQ3\xbf'
p185
tp186
Rp187
ssI22000
(dp188
g3
g4
(g8
S'\xab\xf3Y\x04\xab\xcaV>'
p189
tp190
Rp191
sg14
F-0.006821648
sg15
F-0.006821712
sg16
g4
(g8
S'5\xd9\x98u\x0c\xf1{\xbf'
p192
tp193
Rp194
ssI500
(dp195
g3
g4
(g8
S']d\x91\x8e\x8f\xc0M>'
p196
tp197
Rp198
sg14
F-0.0001392474
sg15
F-0.0001392917
sg16
g4
(g8
S'\xd1\xbb\x81\xbfNA"\xbf'
p199
tp200
Rp201
sssI2
(dp202
I0
(dp203
g3
g4
(g8
S'\xdcf\xf7\xec\xa3QY>'
p204
tp205
Rp206
sg14
F1.55488e-05
sg15
F1.546525e-05
sg16
g4
(g8
S'\x95\xbfwA\x90D\xf0>'
p207
tp208
Rp209
ssI16000
(dp210
g3
g4
(g8
S'\xe9\x15yI5|T>'
p211
tp212
Rp213
sg14
F-0.004951912
sg15
F-0.00495197
sg16
g4
(g8
S'\xa1\x19B\xdc{Ht\xbf'
p214
tp215
Rp216
ssI900
(dp217
g3
g4
(g8
S',X:\xad\xc9hu>'
p218
tp219
Rp220
sg14
F-0.000263185
sg15
F-0.0002635182
sg16
g4
(g8
S'\xdd\xd0\x9e\xf9dD1\xbf'
p221
tp222
Rp223
ssI37000
(dp224
g3
g4
(g8
S'\x8d\xea\xff[\x999k>'
p225
tp226
Rp227
sg14
F-0.01147575
sg15
F-0.01147592
sg16
g4
(g8
S'\xed``\xfb\x9f\x80\x87\xbf'
p228
tp229
Rp230
ssI400
(dp231
g3
g4
(g8
S'k\xf7\x98\xd5\xb9\xb8W>'
p232
tp233
Rp234
sg14
F-0.0001083084
sg15
F-0.0001084044
sg16
g4
(g8
S'\r\xc9\x9f\xde\xafg\x1c\xbf'
p235
tp236
Rp237
ssI600
(dp238
g3
g4
(g8
S'\x0c\x93\xa5\x16y\x00S>'
p239
tp240
Rp241
sg14
F-0.0001706599
sg15
F-0.0001707303
sg16
g4
(g8
S'!\x15i\xec\xb1_&\xbf'
p242
tp243
Rp244
ssI31000
(dp245
g3
g4
(g8
S'\xc1\xd4Vf\xa7\xa3^>'
p246
tp247
Rp248
sg14
F-0.009611599
sg15
F-0.009611704
sg16
g4
(g8
S'\x95Rx\xd4C\xaf\x83\xbf'
p249
tp250
Rp251
ssI25
(dp252
g3
g4
(g8
S'\xee\xba\x15\x90\x9e\xc6^>'
p253
tp254
Rp255
sg14
F7.774594e-06
sg15
F7.673425e-06
sg16
g4
(g8
S'\xc5i\x92aD;\xe0>'
p256
tp257
Rp258
ssI800
(dp259
g3
g4
(g8
S'h\xa1>\xa2\x16\xadm>'
p260
tp261
Rp262
sg14
F-0.0002321425
sg15
F-0.0002323672
sg16
g4
(g8
S'\x14x\xa2\xdd\xa1s.\xbf'
p263
tp264
Rp265
ssI25000
(dp266
g3
g4
(g8
S'd\xd0\x7f]T)R>'
p267
tp268
Rp269
sg14
F-0.007747958
sg15
F-0.007748008
sg16
g4
(g8
S'MJ\x8c]X\xbc\x7f\xbf'
p270
tp271
Rp272
ssI300
(dp273
g3
g4
(g8
S'*\xaf\xb5C\x87\x8f[>'
p274
tp275
Rp276
sg14
F-7.731219e-05
sg15
F-7.739533e-05
sg16
g4
(g8
S'6\xdb\xc9\xec\x98F\x14\xbf'
p277
tp278
Rp279
ssI13000
(dp280
g3
g4
(g8
S'\xf6 g^M\xd6a>'
p281
tp282
Rp283
sg14
F-0.004020744
sg15
F-0.004020847
sg16
g4
(g8
S'\x9a\xa1\x96\x7f\x1exp\xbf'
p284
tp285
Rp286
ssI50
(dp287
g3
g4
(g8
S'\xe4\xb2\x16_Z\xb7^>'
p288
tp289
Rp290
sg14
F-1.697358e-07
sg15
F-2.594451e-07
sg16
g4
(g8
S'12\xe67\x00\xf5\x8c\xbe'
p291
tp292
Rp293
ssI19000
(dp294
g3
g4
(g8
S'\xb0\xfb<\x9c\x8a\xceb>'
p295
tp296
Rp297
sg14
F-0.005883666
sg15
F-0.005883805
sg16
g4
(g8
S'\xd7\xca \x04\x8b\x19x\xbf'
p298
tp299
Rp300
ssI700
(dp301
g3
g4
(g8
S'\x98\x1f]\xb8\xb8lS>'
p302
tp303
Rp304
sg14
F-0.0002017606
sg15
F-0.0002018176
sg16
g4
(g8
S'\xfa8s\xf0\xb4r*\xbf'
p305
tp306
Rp307
ssI40000
(dp308
g3
g4
(g8
S'\xfdw\x8b\xc9@\xd3m>'
p309
tp310
Rp311
sg14
F-0.01240788
sg15
F-0.0124081
sg16
g4
(g8
S'\xc1\xf7\x96\xf2Vi\x89\xbf'
p312
tp313
Rp314
ssI4000
(dp315
g3
g4
(g8
S'\xf2{\xe9O\xdf\x03v>'
p316
tp317
Rp318
sg14
F-0.001226087
sg15
F-0.001226431
sg16
g4
(g8
S'\xaa\xcc+\xda\xc4\x16T\xbf'
p319
tp320
Rp321
ssI200
(dp322
g3
g4
(g8
S'e\xec\xda\xd6\x99\xddW>'
p323
tp324
Rp325
sg14
F-4.656095e-05
sg15
F-4.664758e-05
sg16
g4
(g8
S'c\x9b"?\rm\x08\xbf'
p326
tp327
Rp328
ssI75
(dp329
g3
g4
(g8
S'>\xec\xe3\x84AVU>'
p330
tp331
Rp332
sg14
F-7.646053e-06
sg15
F-7.718493e-06
sg16
g4
(g8
S'y\xf7Q\xb7\xb3\x19\xe0\xbe'
p333
tp334
Rp335
ssI34000
(dp336
g3
g4
(g8
S'\xae\xb1\t\x12Mdf>'
p337
tp338
Rp339
sg14
F-0.01054332
sg15
F-0.01054347
sg16
g4
(g8
S'\x82\x9e\x9fA\xc3\x97\x85\xbf'
p340
tp341
Rp342
ssI7000
(dp343
g3
g4
(g8
S'k\x16U\xcf1\x1eT>'
p344
tp345
Rp346
sg14
F-0.002157423
sg15
F-0.002157489
sg16
g4
(g8
S'\x9a\x85;r\x85\xaca\xbf'
p347
tp348
Rp349
ssI28000
(dp350
g3
g4
(g8
S'lmx^n\xeeH>'
p351
tp352
Rp353
sg14
F-0.008679945
sg15
F-0.008679994
sg16
g4
(g8
S'cZz>\xcd\xc6\x81\xbf'
p354
tp355
Rp356
ssI10000
(dp357
g3
g4
(g8
S'\xa3\xf1K\xa8\x19\xabb>'
p358
tp359
Rp360
sg14
F-0.00308912
sg15
F-0.003089237
sg16
g4
(g8
S'T0\x1b\xbb\x86Ni\xbf'
p361
tp362
Rp363
ssI100
(dp364
g3
g4
(g8
S'u5O\xe1\x07\xddK>'
p365
tp366
Rp367
sg14
F-1.558794e-05
sg15
F-1.563636e-05
sg16
g4
(g8
S'6\xbd\xabw\xed]\xf0\xbe'
p368
tp369
Rp370
ssI1000
(dp371
g3
g4
(g8
S'k\xf5<>\xa5\x19U>'
p372
tp373
Rp374
sg14
F-0.0002946715
sg15
F-0.0002947373
sg16
g4
(g8
S'\x8d\xfd\x1a\xa9XP3\xbf'
p375
tp376
Rp377
ssI22000
(dp378
g3
g4
(g8
S'\xe7\x99q^\x0c_]>'
p379
tp380
Rp381
sg14
F-0.006815508
sg15
F-0.006815611
sg16
g4
(g8
S'\xaeEd\xc5\x9e\xea{\xbf'
p382
tp383
Rp384
ssI500
(dp385
g3
g4
(g8
S'\xbb\x84s\xc2\x02\x84V>'
p386
tp387
Rp388
sg14
F-0.0001395882
sg15
F-0.0001396627
sg16
g4
(g8
S'\xf3q\xf0\xa5\nM"\xbf'
p389
tp390
Rp391
sssI3
(dp392
I0
(dp393
g3
g4
(g8
S'\x81]I\xad@\xbab>'
p394
tp395
Rp396
sg14
F1.267329e-05
sg15
F1.25456e-05
sg16
g4
(g8
S'N\x07I\x94\x8ap\xea>'
p397
tp398
Rp399
ssI16000
(dp400
g3
g4
(g8
S'\xfed\x02\x04\xe9 O>'
p401
tp402
Rp403
sg14
F-0.004959769
sg15
F-0.004959824
sg16
g4
(g8
S'\x1a\x8a\xf4\xcb\xb8Pt\xbf'
p404
tp405
Rp406
ssI900
(dp407
g3
g4
(g8
S'\x18\x9cC\xec\x8a\x0ex>'
p408
tp409
Rp410
sg14
F-0.000266929
sg15
F-0.0002673068
sg16
g4
(g8
S')II\x91 \x7f1\xbf'
p411
tp412
Rp413
ssI37000
(dp414
g3
g4
(g8
S'\x92vG\x9a,\x03p>'
p415
tp416
Rp417
sg14
F-0.01148347
sg15
F-0.01148368
sg16
g4
(g8
S':\xaeHF\xaf\x84\x87\xbf'
p418
tp419
Rp420
ssI400
(dp421
g3
g4
(g8
S'\xf0\xd7\xdc\xfd\xfe\x9dW>'
p422
tp423
Rp424
sg14
F-0.0001115279
sg15
F-0.0001116146
sg16
g4
(g8
S'\x87\x1d\x95\xe7\xd7>\x1d\xbf'
p425
tp426
Rp427
ssI600
(dp428
g3
g4
(g8
S'\xbaJq+G\x11b>'
p429
tp430
Rp431
sg14
F-0.0001739015
sg15
F-0.0001740083
sg16
g4
(g8
S'\xad:\xbf^\x16\xcd&\xbf'
p432
tp433
Rp434
ssI31000
(dp435
g3
g4
(g8
S'!\x12\xdc\xc9v}a>'
p436
tp437
Rp438
sg14
F-0.009619212
sg15
F-0.009619337
sg16
g4
(g8
S'>]\xc0\xbdC\xb3\x83\xbf'
p439
tp440
Rp441
ssI25
(dp442
g3
g4
(g8
S'\xe2\x01\xd3)\xaeM^>'
p443
tp444
Rp445
sg14
F5.128133e-06
sg15
F5.042496e-06
sg16
g4
(g8
S']\xc4\xedQsS\xd5>'
p446
tp447
Rp448
ssI800
(dp449
g3
g4
(g8
S'\xa34\xc3\xb2\xe2\xefp>'
p450
tp451
Rp452
sg14
F-0.00023543
sg15
F-0.0002357086
sg16
g4
(g8
S'i\x8df>;\xe3.\xbf'
p453
tp454
Rp455
ssI25000
(dp456
g3
g4
(g8
S'\xab\xd2\xd4\x1c\x01`Q>'
p457
tp458
Rp459
sg14
F-0.007755624
sg15
F-0.007755681
sg16
g4
(g8
S'\x90/\xa1\xbfc\xc4\x7f\xbf'
p460
tp461
Rp462
ssI300
(dp463
g3
g4
(g8
S'9\xfci\x87\x94\xaaY>'
p464
tp465
Rp466
sg14
F-8.023123e-05
sg15
F-8.032337e-05
sg16
g4
(g8
S'\xaa=p\t\xfc\n\x15\xbf'
p467
tp468
Rp469
ssI13000
(dp470
g3
g4
(g8
S'\xe0\x9e\xacZ\xb7\xc5V>'
p471
tp472
Rp473
sg14
F-0.004027091
sg15
F-0.00402717
sg16
g4
(g8
S'\x14\xfb\xa4\x88\xc1~p\xbf'
p474
tp475
Rp476
ssI50
(dp477
g3
g4
(g8
S'[\xe2\x98\xb5\xda\xddZ>'
p478
tp479
Rp480
sg14
F-2.769986e-06
sg15
F-2.845405e-06
sg16
g4
(g8
S'\xa5\xb5T\xde\xbd\x9a\xc7\xbe'
p481
tp482
Rp483
ssI19000
(dp484
g3
g4
(g8
S'u\xc0w\x08\xc3\xe8Z>'
p485
tp486
Rp487
sg14
F-0.005891819
sg15
F-0.005891904
sg16
g4
(g8
S'\t\xe7\x862\x10"x\xbf'
p488
tp489
Rp490
ssI700
(dp491
g3
g4
(g8
S'U\xae\xd3\x18k\xee`>'
p492
tp493
Rp494
sg14
F-0.0002046137
sg15
F-0.0002047463
sg16
g4
(g8
S'\xbe\xad\xd2\x0b\x12\xd5*\xbf'
p495
tp496
Rp497
ssI40000
(dp498
g3
g4
(g8
S'{\x85\x8a\xffV\x15y>'
p499
tp500
Rp501
sg14
F-0.0124152
sg15
F-0.01241552
sg16
g4
(g8
S'6\xbe\x92\x891m\x89\xbf'
p502
tp503
Rp504
ssI4000
(dp505
g3
g4
(g8
S'\x07\x87\xeaw\x82\x1bp>'
p506
tp507
Rp508
sg14
F-0.001230508
sg15
F-0.001230764
sg16
g4
(g8
S'\xc3\x96\x0e\xc0\x02*T\xbf'
p509
tp510
Rp511
ssI200
(dp512
g3
g4
(g8
S'\x8c@\xde\xc0\xb6\\]>'
p513
tp514
Rp515
sg14
F-4.917707e-05
sg15
F-4.927353e-05
sg16
g4
(g8
S'\x1c\x8f\xe4\xb2\xeb\xcc\t\xbf'
p516
tp517
Rp518
ssI75
(dp519
g3
g4
(g8
S'\xe9\x1d\xe3\x00\xb8\xf8W>'
p520
tp521
Rp522
sg14
F-1.066231e-05
sg15
F-1.074673e-05
sg16
g4
(g8
S'\x99\x90\x7f\xa2\x9en\xe6\xbe'
p523
tp524
Rp525
ssI34000
(dp526
g3
g4
(g8
S'\x9d\x84\xediRVe>'
p527
tp528
Rp529
sg14
F-0.01055132
sg15
F-0.01055149
sg16
g4
(g8
S'\xc0j\x98\xe4\xf5\x9b\x85\xbf'
p530
tp531
Rp532
ssI7000
(dp533
g3
g4
(g8
S'\xce\xd9m\t\xca\xf1V>'
p534
tp535
Rp536
sg14
F-0.002162698
sg15
F-0.002162768
sg16
g4
(g8
S'\x86\xe7\xfaz\x97\xb7a\xbf'
p537
tp538
Rp539
ssI28000
(dp540
g3
g4
(g8
S'%H\x02\xc7\xaeda>'
p541
tp542
Rp543
sg14
F-0.008687265
sg15
F-0.008687369
sg16
g4
(g8
S'\x0f9\x85\xae\xa7\xca\x81\xbf'
p544
tp545
Rp546
ssI10000
(dp547
g3
g4
(g8
S'\xb4[\xf0\xb3k\x16Z>'
p548
tp549
Rp550
sg14
F-0.003094976
sg15
F-0.003095069
sg16
g4
(g8
S'\x91\x9f\xb3\xda\xbaZi\xbf'
p551
tp552
Rp553
ssI100
(dp554
g3
g4
(g8
S'\xa5\x07\x88\xa6O\xaeT>'
p555
tp556
Rp557
sg14
F-1.854653e-05
sg15
F-1.861456e-05
sg16
g4
(g8
S'\xd40\xf3VZ{\xf3\xbe'
p558
tp559
Rp560
ssI1000
(dp561
g3
g4
(g8
S'(\xablN#\xa6|>'
p562
tp563
Rp564
sg14
F-0.0002980352
sg15
F-0.0002985067
sg16
g4
(g8
S'\xe4\x1dS\x91\x86\x893\xbf'
p565
tp566
Rp567
ssI22000
(dp568
g3
g4
(g8
S'_0\x01\x89F\x82V>'
p569
tp570
Rp571
sg14
F-0.006823608
sg15
F-0.006823688
sg16
g4
(g8
S'\xa6\x98\x18\x11\x1f\xf3{\xbf'
p572
tp573
Rp574
ssI500
(dp575
g3
g4
(g8
S'lK\xa98<\x9dP>'
p576
tp577
Rp578
sg14
F-0.0001425887
sg15
F-0.0001426404
sg16
g4
(g8
S'\xed*\xa8\xde_\xb1"\xbf'
p579
tp580
Rp581
sssI4
(dp582
I0
(dp583
g3
g4
(g8
S'\x03Z\x1e\x0f\x05\xa8]>'
p584
tp585
Rp586
sg14
F1.042169e-05
sg15
F1.030772e-05
sg16
g4
(g8
S'`l\x18b\x95\xb5\xe5>'
p587
tp588
Rp589
ssI16000
(dp590
g3
g4
(g8
S'\xbc\x98\x9dW\xcb\x12\\>'
p591
tp592
Rp593
sg14
F-0.004956965
sg15
F-0.004957054
sg16
g4
(g8
S'\xb9{\x1cn\xcaMt\xbf'
p594
tp595
Rp596
ssI900
(dp597
g3
g4
(g8
S'p\rpgu\xe1w>'
p598
tp599
Rp600
sg14
F-0.0002685849
sg15
F-0.0002689784
sg16
g4
(g8
S'\tC\xa1E=\x9b1\xbf'
p601
tp602
Rp603
ssI37000
(dp604
g3
g4
(g8
S':\x9cd\xb2\x9c\xa1m>'
p605
tp606
Rp607
sg14
F-0.01148106
sg15
F-0.01148126
sg16
g4
(g8
S'\xd91G\xeei\x83\x87\xbf'
p608
tp609
Rp610
ssI400
(dp611
g3
g4
(g8
S'\x1b\xc5\x86\xe7Q\x9bO>'
p612
tp613
Rp614
sg14
F-0.0001134569
sg15
F-0.0001135099
sg16
g4
(g8
S'`\xe2%I\xf5\xbf\x1d\xbf'
p615
tp616
Rp617
ssI600
(dp618
g3
g4
(g8
S'\xa2\xec\x8f\xdb\xc9\xf7U>'
p619
tp620
Rp621
sg14
F-0.0001756359
sg15
F-0.0001757094
sg16
g4
(g8
S"\xa2\xa5B\xbbj\x06'\xbf"
p622
tp623
Rp624
ssI31000
(dp625
g3
g4
(g8
S'1\xe0\xf7}$\x84Z>'
p626
tp627
Rp628
sg14
F-0.00961752
sg15
F-0.0096176
sg16
g4
(g8
S'G\x93\xad\xa1^\xb2\x83\xbf'
p629
tp630
Rp631
ssI25
(dp632
g3
g4
(g8
S'c\x84J\xc4\xacOO>'
p633
tp634
Rp635
sg14
F2.624755e-06
sg15
F2.567257e-06
sg16
g4
(g8
S'\xb9\x8f\x99X\xe2\xd3\xc5>'
p636
tp637
Rp638
ssI800
(dp639
g3
g4
(g8
S'\nq"\xdb\xb4\'z>'
p640
tp641
Rp642
sg14
F-0.0002373086
sg15
F-0.0002377278
sg16
g4
(g8
S'\xd5\xa9%/\xc8\x1c/\xbf'
p643
tp644
Rp645
ssI25000
(dp646
g3
g4
(g8
S'-\xb2\xaa\xcep\xe0V>'
p647
tp648
Rp649
sg14
F-0.007753333
sg15
F-0.0077534
sg16
g4
(g8
S'7\x14\xb9\x83\xfd\xc1\x7f\xbf'
p650
tp651
Rp652
ssI300
(dp653
g3
g4
(g8
S'\xe9\x1av+\xa4\x87U>'
p654
tp655
Rp656
sg14
F-8.226155e-05
sg15
F-8.233846e-05
sg16
g4
(g8
S'\xfa\x97\xe3\xcd\x06\x93\x15\xbf'
p657
tp658
Rp659
ssI13000
(dp660
g3
g4
(g8
S'Q\xc7\xcc\x88e[Q>'
p661
tp662
Rp663
sg14
F-0.004025782
sg15
F-0.004025848
sg16
g4
(g8
S'\tvq\xdc_}p\xbf'
p664
tp665
Rp666
ssI50
(dp667
g3
g4
(g8
S'\xe5\x16\xc2Z\x01\xafY>'
p668
tp669
Rp670
sg14
F-4.892961e-06
sg15
F-4.978788e-06
sg16
g4
(g8
S'\x9a\xefN=*\xb2\xd4\xbe'
p671
tp672
Rp673
ssI19000
(dp674
g3
g4
(g8
S'\xc6&J\x85 \x18T>'
p675
tp676
Rp677
sg14
F-0.00588867
sg15
F-0.005888751
sg16
g4
(g8
S'\xac;\xear\xc3\x1ex\xbf'
p678
tp679
Rp680
ssI700
(dp681
g3
g4
(g8
S':\xb9\x0b\x03\xe8\x1d|>'
p682
tp683
Rp684
sg14
F-0.0002063247
sg15
F-0.0002067653
sg16
g4
(g8
S'\xcd+\xd7\xcf\xe7\x0c+\xbf'
p685
tp686
Rp687
ssI40000
(dp688
g3
g4
(g8
S'N\x14#G\xf6\xe8q>'
p689
tp690
Rp691
sg14
F-0.01241349
sg15
F-0.01241373
sg16
g4
(g8
S'\xec\x1f\xc2\xc9Il\x89\xbf'
p692
tp693
Rp694
ssI4000
(dp695
g3
g4
(g8
S'"\xf5\x90APe~>'
p696
tp697
Rp698
sg14
F-0.001230878
sg15
F-0.001231356
sg16
g4
(g8
S'v\xcb@h\xf1*T\xbf'
p699
tp700
Rp701
ssI200
(dp702
g3
g4
(g8
S'q\xfdlD\x83\x00V>'
p703
tp704
Rp705
sg14
F-5.151968e-05
sg15
F-5.159561e-05
sg16
g4
(g8
S'\xe5\x9e\xb7\x17e\x07\x0b\xbf'
p706
tp707
Rp708
ssI75
(dp709
g3
g4
(g8
S'\x8f\x80\t\x13\xfd\xdcY>'
p710
tp711
Rp712
sg14
F-1.26086e-05
sg15
F-1.270133e-05
sg16
g4
(g8
S'T\xe4_\xf8S\x8f\xea\xbe'
p713
tp714
Rp715
ssI34000
(dp716
g3
g4
(g8
S'\xf1#\xe2M{hj>'
p717
tp718
Rp719
sg14
F-0.01054894
sg15
F-0.01054909
sg16
g4
(g8
S'/\x85\xab+\xb7\x9a\x85\xbf'
p720
tp721
Rp722
ssI7000
(dp723
g3
g4
(g8
S'\x8c\xe8?6i\xd4T>'
p724
tp725
Rp726
sg14
F-0.002162145
sg15
F-0.002162206
sg16
g4
(g8
S'\xeegA\x83k\xb6a\xbf'
p727
tp728
Rp729
ssI28000
(dp730
g3
g4
(g8
S'\xce\x1b\x9b\xa0\x95WY>'
p731
tp732
Rp733
sg14
F-0.008685497
sg15
F-0.00868558
sg16
g4
(g8
S'\xba:f2\xba\xc9\x81\xbf'
p734
tp735
Rp736
ssI10000
(dp737
g3
g4
(g8
S'\xf6`)\x89\xfd%Z>'
p738
tp739
Rp740
sg14
F-0.003094112
sg15
F-0.003094195
sg16
g4
(g8
S'B&W\xfe\xe8Xi\xbf'
p741
tp742
Rp743
ssI100
(dp744
g3
g4
(g8
S'b\xb4\x02\xc4@\xabU>'
p745
tp746
Rp747
sg14
F-2.050231e-05
sg15
F-2.059163e-05
sg16
g4
(g8
S'\x06\x8f\x18\xd3\xaf\x89\xf5\xbe'
p748
tp749
Rp750
ssI1000
(dp751
g3
g4
(g8
S'&\xa8\x07\x1dk\xad~>'
p752
tp753
Rp754
sg14
F-0.0002996957
sg15
F-0.0003001788
sg16
g4
(g8
S'f\xcf\xb5\xfc\x1e\xa53\xbf'
p755
tp756
Rp757
ssI22000
(dp758
g3
g4
(g8
S'&\x93\xee=]\xfcP>'
p759
tp760
Rp761
sg14
F-0.006820914
sg15
F-0.00682098
sg16
g4
(g8
S'O\xcd\x0b\x91E\xf0{\xbf'
p762
tp763
Rp764
ssI500
(dp765
g3
g4
(g8
S'\xe6\\\xf5\xc1c\xcaT>'
p766
tp767
Rp768
sg14
F-0.0001445635
sg15
F-0.0001446269
sg16
g4
(g8
S'\xde\x18\xa0N\xb3\xf3"\xbf'
p769
tp770
Rp771
sssI5
(dp772
I0
(dp773
g3
g4
(g8
S'"\xa9\x1cb\xa9\x88a>'
p774
tp775
Rp776
sg14
F1.811948e-05
sg15
F1.800239e-05
sg16
g4
(g8
S'9\x17`\xb5\xf7\xf0\xf2>'
p777
tp778
Rp779
ssI16000
(dp780
g3
g4
(g8
S'\xaccjr\x8azS>'
p781
tp782
Rp783
sg14
F-0.004952338
sg15
F-0.004952401
sg16
g4
(g8
S'\xa4\xf9\xd1\x1b\xefHt\xbf'
p784
tp785
Rp786
ssI900
(dp787
g3
g4
(g8
S'({\xcd\xac5\xeey>'
p788
tp789
Rp790
sg14
F-0.0002609329
sg15
F-0.0002613512
sg16
g4
(g8
S'm\xdd\x13\xe9\xef\x1a1\xbf'
p791
tp792
Rp793
ssI37000
(dp794
g3
g4
(g8
S'\xdd\x82\x11\xc0b\xf5e>'
p795
tp796
Rp797
sg14
F-0.01147136
sg15
F-0.01147152
sg16
g4
(g8
S'\xba\x10\x89IT~\x87\xbf'
p798
tp799
Rp800
ssI400
(dp801
g3
g4
(g8
S'\x19\xe3\xa0\xbe\xec\x10T>'
p802
tp803
Rp804
sg14
F-0.0001057866
sg15
F-0.0001058428
sg16
g4
(g8
S'\xd2\x03\xf1\x87\xca\xbc\x1b\xbf'
p805
tp806
Rp807
ssI600
(dp808
g3
g4
(g8
S'\x04\xcaVA\xf3\na>'
p809
tp810
Rp811
sg14
F-0.0001681837
sg15
F-0.0001682936
sg16
g4
(g8
S'\xb6$\x8b\xaa\xce\x0c&\xbf'
p812
tp813
Rp814
ssI31000
(dp815
g3
g4
(g8
S'B\x8f:\xec\x9b\xe4_>'
p816
tp817
Rp818
sg14
F-0.009609583
sg15
F-0.009609716
sg16
g4
(g8
S'\xf6\xe7\x8d\xdb6\xae\x83\xbf'
p819
tp820
Rp821
ssI25
(dp822
g3
g4
(g8
S'Em\x16\xdd\xb8 L>'
p823
tp824
Rp825
sg14
F1.023799e-05
sg15
F1.019553e-05
sg16
g4
(g8
S'&_\xb44\xbcn\xe5>'
p826
tp827
Rp828
ssI800
(dp829
g3
g4
(g8
S'\xe4\x10f\xa9[\xa0z>'
p830
tp831
Rp832
sg14
F-0.0002293325
sg15
F-0.0002297509
sg16
g4
(g8
S'\xac\xefh\xc0h\x1b.\xbf'
p833
tp834
Rp835
ssI25000
(dp836
g3
g4
(g8
S'\xb4Cw\xaf\\\xb9Z>'
p837
tp838
Rp839
sg14
F-0.007746723
sg15
F-0.007746797
sg16
g4
(g8
S'\x92\xe2\xd6\xac\x0f\xbb\x7f\xbf'
p840
tp841
Rp842
ssI300
(dp843
g3
g4
(g8
S'\xea\xb8\x84$\xe0\xd6T>'
p844
tp845
Rp846
sg14
F-7.449956e-05
sg15
F-7.456324e-05
sg16
g4
(g8
S'\x0b\xea\xbf\xce\xd0\x89\x13\xbf'
p847
tp848
Rp849
ssI13000
(dp850
g3
g4
(g8
S']\xa2\x8a~\x8e?`>'
p851
tp852
Rp853
sg14
F-0.004020561
sg15
F-0.004020679
sg16
g4
(g8
S'\x8cM\xeaP\xf3wp\xbf'
p854
tp855
Rp856
ssI50
(dp857
g3
g4
(g8
S'\xbd@;\xb1\xd7RS>'
p858
tp859
Rp860
sg14
F2.701729e-06
sg15
F2.626988e-06
sg16
g4
(g8
S'\xc9\xeb\xbe\xdbaw\xc6>'
p861
tp862
Rp863
ssI19000
(dp864
g3
g4
(g8
S'&\xbe\xec\xff\xc3HZ>'
p865
tp866
Rp867
sg14
F-0.005883402
sg15
F-0.0058835
sg16
g4
(g8
S'E\xf4\x18\x11?\x19x\xbf'
p868
tp869
Rp870
ssI700
(dp871
g3
g4
(g8
S'\xb8\x19\x03\x07\xea\x1dX>'
p872
tp873
Rp874
sg14
F-0.0001988202
sg15
F-0.0001988957
sg16
g4
(g8
S'\xc1\x8b\xc9}\x80\x10*\xbf'
p875
tp876
Rp877
ssI40000
(dp878
g3
g4
(g8
S'\xc4\xf4}\xed-\xa5k>'
p879
tp880
Rp881
sg14
F-0.01240269
sg15
F-0.01240291
sg16
g4
(g8
S';\xedln\x9ff\x89\xbf'
p882
tp883
Rp884
ssI4000
(dp885
g3
g4
(g8
S'$\xf14\x88\x0cK\x80>'
p886
tp887
Rp888
sg14
F-0.0012242
sg15
F-0.001224718
sg16
g4
(g8
S'4\xa4\xdbf\xf5\x0eT\xbf'
p889
tp890
Rp891
ssI200
(dp892
g3
g4
(g8
S'$\x0b\xeaR\x96\x12V>'
p893
tp894
Rp895
sg14
F-4.35184e-05
sg15
F-4.359212e-05
sg16
g4
(g8
S'\x80\xcd\xd3%\xe5\xd5\x06\xbf'
p896
tp897
Rp898
ssI75
(dp899
g3
g4
(g8
S'R\xfb\xfa\xc7^\x87Q>'
p900
tp901
Rp902
sg14
F-5.125435e-06
sg15
F-5.186258e-06
sg16
g4
(g8
S'a\xaf\xbdk\xa6\xa7\xd5\xbe'
p903
tp904
Rp905
ssI34000
(dp906
g3
g4
(g8
S'\nbW\x18A\x0fb>'
p907
tp908
Rp909
sg14
F-0.01054014
sg15
F-0.01054026
sg16
g4
(g8
S'\xbb\xf0\xf60\x17\x96\x85\xbf'
p910
tp911
Rp912
ssI7000
(dp913
g3
g4
(g8
S'\xfcz\xddY<\xc1b>'
p914
tp915
Rp916
sg14
F-0.002156026
sg15
F-0.002156137
sg16
g4
(g8
S'\xbfc \x1c\xa5\xa9a\xbf'
p917
tp918
Rp919
ssI28000
(dp920
g3
g4
(g8
S'\x89_\xab\x19U\xceW>'
p921
tp922
Rp923
sg14
F-0.008677945
sg15
F-0.008678035
sg16
g4
(g8
S'\x967\xcf(\xc6\xc5\x81\xbf'
p924
tp925
Rp926
ssI10000
(dp927
g3
g4
(g8
S'5t\xbe}\xdfO`>'
p928
tp929
Rp930
sg14
F-0.003088237
sg15
F-0.003088355
sg16
g4
(g8
S'D\x1eK\x98\x98Li\xbf'
p931
tp932
Rp933
ssI100
(dp934
g3
g4
(g8
S'\xdb\x10\xf6\x19f\x81U>'
p935
tp936
Rp937
sg14
F-1.288052e-05
sg15
F-1.2945e-05
sg16
g4
(g8
S'fM\xe0#\x95\x13\xeb\xbe'
p938
tp939
Rp940
ssI1000
(dp941
g3
g4
(g8
S'0\x11\x115\xae-\x7f>'
p942
tp943
Rp944
sg14
F-0.0002921481
sg15
F-0.0002926528
sg16
g4
(g8
S' \xc0\xfc\xae\xbc&3\xbf'
p945
tp946
Rp947
ssI22000
(dp948
g3
g4
(g8
S'\x19\xb2\x11(Z\xabW>'
p949
tp950
Rp951
sg14
F-0.006815249
sg15
F-0.006815332
sg16
g4
(g8
S'W\xb7NlX\xea{\xbf'
p952
tp953
Rp954
ssI500
(dp955
g3
g4
(g8
S'F/\x0f\xe0\x99\x1fY>'
p956
tp957
Rp958
sg14
F-0.0001369609
sg15
F-0.0001370459
sg16
g4
(g8
S'\x92\x92\xec.\x10\xf5!\xbf'
p959
tp960
Rp961
sssI6
(dp962
I0
(dp963
g3
g4
(g8
S'-\xf5\xf8\xa5\xa4\x9bj>'
p964
tp965
Rp966
sg14
F1.363089e-05
sg15
F1.347671e-05
sg16
g4
(g8
S'0\xe5\xaa\xcbBq\xec>'
p967
tp968
Rp969
ssI16000
(dp970
g3
g4
(g8
S'\xa0\xaa\x89\xb3K\xb7`>'
p971
tp972
Rp973
sg14
F-0.004957044
sg15
F-0.004957163
sg16
g4
(g8
S'\xa60\x15v\xe9Mt\xbf'
p974
tp975
Rp976
ssI900
(dp977
g3
g4
(g8
S'n>\x89\xf6L\xc3w>'
p978
tp979
Rp980
sg14
F-0.0002655476
sg15
F-0.0002659252
sg16
g4
(g8
S'\x00]\x9c\xe8\x04h1\xbf'
p981
tp982
Rp983
ssI37000
(dp984
g3
g4
(g8
S'\x97\\\x9d\xc9Y\xc9m>'
p985
tp986
Rp987
sg14
F-0.01148171
sg15
F-0.01148193
sg16
g4
(g8
S'F\xe4\xbdd\xc4\x83\x87\xbf'
p988
tp989
Rp990
ssI400
(dp991
g3
g4
(g8
S'\x8c\xa0\x19\x1f\xef\xf0X>'
p992
tp993
Rp994
sg14
F-0.0001103147
sg15
F-0.0001104041
sg16
g4
(g8
S'&\xf9\xe9\xbe\xfb\xee\x1c\xbf'
p995
tp996
Rp997
ssI600
(dp998
g3
g4
(g8
S'\\\xe2\x03r\x15V_>'
p999
tp1000
Rp1001
sg14
F-0.0001725912
sg15
F-0.0001726855
sg16
g4
(g8
S'\xfd\xe7n\t\xa8\xa0&\xbf'
p1002
tp1003
Rp1004
ssI31000
(dp1005
g3
g4
(g8
S'\xd1\xf9\x04\x0fjvc>'
p1006
tp1007
Rp1008
sg14
F-0.009617556
sg15
F-0.009617673
sg16
g4
(g8
S'`\xeb\x87Rd\xb2\x83\xbf'
p1009
tp1010
Rp1011
ssI25
(dp1012
g3
g4
(g8
S'\xe2\xf6R\xaf\xfd\x8bS>'
p1013
tp1014
Rp1015
sg14
F5.853804e-06
sg15
F5.793737e-06
sg16
g4
(g8
S'\xde\xb0\xc3W?p\xd8>'
p1016
tp1017
Rp1018
ssI800
(dp1019
g3
g4
(g8
S']\x153\xf1\x9e\xf4x>'
p1020
tp1021
Rp1022
sg14
F-0.0002344588
sg15
F-0.0002348607
sg16
g4
(g8
S'-\xfc\xe6\xb9u\xbd.\xbf'
p1023
tp1024
Rp1025
ssI25000
(dp1026
g3
g4
(g8
S"\xb5'l\xca\xc7\xeeY>"
p1027
tp1028
Rp1029
sg14
F-0.00775356
sg15
F-0.007753646
sg16
g4
(g8
S'\xad\xc8\xceu?\xc2\x7f\xbf'
p1030
tp1031
Rp1032
ssI300
(dp1033
g3
g4
(g8
S'j\x87\xc15\xf1~R>'
p1034
tp1035
Rp1036
sg14
F-7.917936e-05
sg15
F-7.925031e-05
sg16
g4
(g8
S'6*1\x94\xdd\xc3\x14\xbf'
p1037
tp1038
Rp1039
ssI13000
(dp1040
g3
g4
(g8
S'\xdc\x19\xe1Q\x19ba>'
p1041
tp1042
Rp1043
sg14
F-0.004025315
sg15
F-0.004025437
sg16
g4
(g8
S'\t.\x1f\xd5\xe6|p\xbf'
p1044
tp1045
Rp1046
ssI50
(dp1047
g3
g4
(g8
S']\x8bV\xb4\xb8\xd5Y>'
p1048
tp1049
Rp1050
sg14
F-1.623322e-06
sg15
F-1.732984e-06
sg16
g4
(g8
S'v\xbb\xdf\x9e\xc18\xbc\xbe'
p1051
tp1052
Rp1053
ssI19000
(dp1054
g3
g4
(g8
S'\x13\xbe\x8b]\xf8\x1bl>'
p1055
tp1056
Rp1057
sg14
F-0.005888901
sg15
F-0.005889075
sg16
g4
(g8
S'\xf0\xea\xd8\xa8\x14\x1fx\xbf'
p1058
tp1059
Rp1060
ssI700
(dp1061
g3
g4
(g8
S'\x14\x81d\xad\x0f\x1bw>'
p1062
tp1063
Rp1064
sg14
F-0.0002038178
sg15
F-0.0002041885
sg16
g4
(g8
S'\x9b~\xc8\xb5\x1b\xb9*\xbf'
p1065
tp1066
Rp1067
ssI40000
(dp1068
g3
g4
(g8
S'\x1d\xd1\x0fC\n]q>'
p1069
tp1070
Rp1071
sg14
F-0.01241408
sg15
F-0.01241433
sg16
g4
(g8
S'c\xceJ\x92\x9bl\x89\xbf'
p1072
tp1073
Rp1074
ssI4000
(dp1075
g3
g4
(g8
S'\x1e\xde\x8c\x8bzqi>'
p1076
tp1077
Rp1078
sg14
F-0.001228945
sg15
F-0.001229168
sg16
g4
(g8
S'\xbe\x8b/\x82\xd6"T\xbf'
p1079
tp1080
Rp1081
ssI200
(dp1082
g3
g4
(g8
S'%eN\x11d\xb5R>'
p1083
tp1084
Rp1085
sg14
F-4.861708e-05
sg15
F-4.868189e-05
sg16
g4
(g8
S'\\\xfa}\xcf\xb0\x80\t\xbf'
p1086
tp1087
Rp1088
ssI75
(dp1089
g3
g4
(g8
S'\xf4\xbe\xb2\xd5+\xfaQ>'
p1090
tp1091
Rp1092
sg14
F-9.530426e-06
sg15
F-9.585953e-06
sg16
g4
(g8
S'\x10l\x8c\x93D\x0f\xe4\xbe'
p1093
tp1094
Rp1095
ssI34000
(dp1096
g3
g4
(g8
S'\xb0\xae\xd7i\xa9\xbfb>'
p1097
tp1098
Rp1099
sg14
F-0.01054926
sg15
F-0.0105494
sg16
g4
(g8
S'\xcd+x\x82\xe0\x9a\x85\xbf'
p1100
tp1101
Rp1102
ssI7000
(dp1103
g3
g4
(g8
S'\x904\xb6\x8f\x16hc>'
p1104
tp1105
Rp1106
sg14
F-0.002161144
sg15
F-0.002161272
sg16
g4
(g8
S'\x82n\xcb\x9fk\xb4a\xbf'
p1107
tp1108
Rp1109
ssI28000
(dp1110
g3
g4
(g8
S'\xa9\xf6r\xf0&\x94Z>'
p1111
tp1112
Rp1113
sg14
F-0.008685456
sg15
F-0.00868555
sg16
g4
(g8
S'\xa1\x955W\xb2\xc9\x81\xbf'
p1114
tp1115
Rp1116
ssI10000
(dp1117
g3
g4
(g8
S'\x8b@\x84\x14\x8e\xfec>'
p1118
tp1119
Rp1120
sg14
F-0.003093026
sg15
F-0.003093159
sg16
g4
(g8
S'\xa3\xea\x9b\x94\xbcVi\xbf'
p1121
tp1122
Rp1123
ssI100
(dp1124
g3
g4
(g8
S'\xca\x08(\xa6\xad\xd4Z>'
p1125
tp1126
Rp1127
sg14
F-1.746613e-05
sg15
F-1.755588e-05
sg16
g4
(g8
S'\xf6\xd1"\xab\x9e\\\xf2\xbe'
p1128
tp1129
Rp1130
ssI1000
(dp1131
g3
g4
(g8
S'\x19c\x00\xaf\xd3?|>'
p1132
tp1133
Rp1134
sg14
F-0.0002967905
sg15
F-0.0002972427
sg16
g4
(g8
S'\xddiV\xbakt3\xbf'
p1135
tp1136
Rp1137
ssI22000
(dp1138
g3
g4
(g8
S'v}f\x03\xf7\xb2V>'
p1139
tp1140
Rp1141
sg14
F-0.006821539
sg15
F-0.006821616
sg16
g4
(g8
S'\xcd-X\x19\xf2\xf0{\xbf'
p1142
tp1143
Rp1144
ssI500
(dp1145
g3
g4
(g8
S'S\x9c\x1av\x06\xe4R>'
p1146
tp1147
Rp1148
sg14
F-0.0001414708
sg15
F-0.0001415347
sg16
g4
(g8
S'\x06Z\xf18\xc8\x8b"\xbf'
p1149
tp1150
Rp1151
sssI7
(dp1152
I0
(dp1153
g3
g4
(g8
S'\x9c\xce{\xf3a\xedn>'
p1154
tp1155
Rp1156
sg14
F1.56077e-05
sg15
F1.543249e-05
sg16
g4
(g8
S'vQ\x8b\xb8-G\xf0>'
p1157
tp1158
Rp1159
ssI16000
(dp1160
g3
g4
(g8
S'w\xd2i\xdd\xfdxS>'
p1161
tp1162
Rp1163
sg14
F-0.004960774
sg15
F-0.004960848
sg16
g4
(g8
S'\xb9\r\xcc\xd0\xcaQt\xbf'
p1164
tp1165
Rp1166
ssI900
(dp1167
g3
g4
(g8
S'[\xd0~\x93\r{o>'
p1168
tp1169
Rp1170
sg14
F-0.0002640164
sg15
F-0.0002642922
sg16
g4
(g8
S'\x17\x80m\x01\xb5N1\xbf'
p1171
tp1172
Rp1173
ssI37000
(dp1174
g3
g4
(g8
S'.=\x0e|u\xe4s>'
p1175
tp1176
Rp1177
sg14
F-0.01148572
sg15
F-0.01148599
sg16
g4
(g8
S'*\xe7\xcb\t\xe0\x85\x87\xbf'
p1178
tp1179
Rp1180
ssI400
(dp1181
g3
g4
(g8
S'95\xbe\xbb\nc[>'
p1182
tp1183
Rp1184
sg14
F-0.0001087424
sg15
F-0.0001088476
sg16
g4
(g8
S'\xa6<\xf8K-\x84\x1c\xbf'
p1185
tp1186
Rp1187
ssI600
(dp1188
g3
g4
(g8
S'\xcdc\xebn\x83:P>'
p1189
tp1190
Rp1191
sg14
F-0.0001708419
sg15
F-0.0001709
sg16
g4
(g8
S'{\x913\x1b\xd4e&\xbf'
p1192
tp1193
Rp1194
ssI31000
(dp1195
g3
g4
(g8
S'\x91\xc2w\xe8\x83\xa7b>'
p1196
tp1197
Rp1198
sg14
F-0.009622387
sg15
F-0.009622492
sg16
g4
(g8
S'\x9d\xbf\xde~\xec\xb4\x83\xbf'
p1199
tp1200
Rp1201
ssI25
(dp1202
g3
g4
(g8
S'\x1a\x8f\xf2ML\x0fh>'
p1203
tp1204
Rp1205
sg14
F7.808289e-06
sg15
F7.659589e-06
sg16
g4
(g8
S'\xb2t\xd5Wu:\xe0>'
p1206
tp1207
Rp1208
ssI800
(dp1209
g3
g4
(g8
S'5\xb5\x91p\xa3nf>'
p1210
tp1211
Rp1212
sg14
F-0.0002326951
sg15
F-0.0002328851
sg16
g4
(g8
S'YD\xc2\xbdX\x84.\xbf'
p1213
tp1214
Rp1215
ssI25000
(dp1216
g3
g4
(g8
S'\xacL\x9a\xdf%%^>'
p1217
tp1218
Rp1219
sg14
F-0.007757471
sg15
F-0.007757558
sg16
g4
(g8
S'Lk\xacrV\xc6\x7f\xbf'
p1220
tp1221
Rp1222
ssI300
(dp1223
g3
g4
(g8
S'\xf5\x8c\x1a\xad\xd8\xd8i>'
p1224
tp1225
Rp1226
sg14
F-7.741057e-05
sg15
F-7.759778e-05
sg16
g4
(g8
S'\xf7c\xb4\x12JO\x14\xbf'
p1227
tp1228
Rp1229
ssI13000
(dp1230
g3
g4
(g8
S'kh\nC\xfcJW>'
p1231
tp1232
Rp1233
sg14
F-0.004027955
sg15
F-0.004028031
sg16
g4
(g8
S'\xac\r\xe5/\xa6\x7fp\xbf'
p1234
tp1235
Rp1236
ssI50
(dp1237
g3
g4
(g8
S'\xb2{\xb1\x9d\xe9\xa6l>'
p1238
tp1239
Rp1240
sg14
F2.534558e-07
sg15
F8.722398e-08
sg16
g4
(g8
S'\xa5\xdb\xb6E"\xcf\x8b>'
p1241
tp1242
Rp1243
ssI19000
(dp1244
g3
g4
(g8
S'\xe2\xf3U)]\x9bS>'
p1245
tp1246
Rp1247
sg14
F-0.0058927
sg15
F-0.005892766
sg16
g4
(g8
S'\xfe\xae\x92\x82\xfc"x\xbf'
p1248
tp1249
Rp1250
ssI700
(dp1251
g3
g4
(g8
S'\xfc\xd3\x86D\xa1\xd1`>'
p1252
tp1253
Rp1254
sg14
F-0.0002019662
sg15
F-0.0002020983
sg16
g4
(g8
S'\xfb\xb5jO\xb8{*\xbf'
p1255
tp1256
Rp1257
ssI40000
(dp1258
g3
g4
(g8
S'<<B\xbd\xf1\xd5{>'
p1259
tp1260
Rp1261
sg14
F-0.01241795
sg15
F-0.01241832
sg16
g4
(g8
S'[L\xbb\xb5\xa3n\x89\xbf'
p1262
tp1263
Rp1264
ssI4000
(dp1265
g3
g4
(g8
S'\xd3\x8d\xdb\xd0H\x88j>'
p1266
tp1267
Rp1268
sg14
F-0.001228761
sg15
F-0.001228993
sg16
g4
(g8
S'0P\xda\xe3\x1a"T\xbf'
p1269
tp1270
Rp1271
ssI200
(dp1272
g3
g4
(g8
S'\xbdM\xf2\xf6\xc7\xf1k>'
p1273
tp1274
Rp1275
sg14
F-4.668569e-05
sg15
F-4.684314e-05
sg16
g4
(g8
S'Y\x950\x98\x1a\x82\x08\xbf'
p1276
tp1277
Rp1278
ssI75
(dp1279
g3
g4
(g8
S'\xact\x86E\x0f\xb2b>'
p1280
tp1281
Rp1282
sg14
F-7.570076e-06
sg15
F-7.721617e-06
sg16
g4
(g8
S'FJ\xbd\xdb\xe3\xe8\xdf\xbe'
p1283
tp1284
Rp1285
ssI34000
(dp1286
g3
g4
(g8
S'a\xdau\xdf\x14\xb6o>'
p1287
tp1288
Rp1289
sg14
F-0.01055378
sg15
F-0.01055398
sg16
g4
(g8
S'\xd1\x0c\xd7\xa9B\x9d\x85\xbf'
p1290
tp1291
Rp1292
ssI7000
(dp1293
g3
g4
(g8
S'v\xff$\x80\xa4\xa5_>'
p1294
tp1295
Rp1296
sg14
F-0.002162012
sg15
F-0.002162115
sg16
g4
(g8
S"\xad\xe6.B'\xb6a\xbf"
p1297
tp1298
Rp1299
ssI28000
(dp1300
g3
g4
(g8
S'\xdfc7\xecN:b>'
p1301
tp1302
Rp1303
sg14
F-0.008689823
sg15
F-0.008689941
sg16
g4
(g8
S'\x91\x86\x9c\x7f\xfd\xcb\x81\xbf'
p1304
tp1305
Rp1306
ssI10000
(dp1307
g3
g4
(g8
S'=\xe2&-4\xe0S>'
p1308
tp1309
Rp1310
sg14
F-0.003094962
sg15
F-0.00309503
sg16
g4
(g8
S'\xf5\xf0\xcaS\xaeZi\xbf'
p1311
tp1312
Rp1313
ssI100
(dp1314
g3
g4
(g8
S'\xdcr\xea[\xd4\x8df>'
p1315
tp1316
Rp1317
sg14
F-1.551712e-05
sg15
F-1.569809e-05
sg16
g4
(g8
S'f$\xc1<\xd9T\xf0\xbe'
p1318
tp1319
Rp1320
ssI1000
(dp1321
g3
g4
(g8
S'\xa1\x01\xc4\x16\x13t|>'
p1322
tp1323
Rp1324
sg14
F-0.0002952235
sg15
F-0.0002956801
sg16
g4
(g8
S'\x17rh\x8e\x1aZ3\xbf'
p1325
tp1326
Rp1327
ssI22000
(dp1328
g3
g4
(g8
S':o\x05\x80f\xc4P>'
p1329
tp1330
Rp1331
sg14
F-0.006825013
sg15
F-0.00682507
sg16
g4
(g8
S'\x8e\x91\xe8\x03\x95\xf4{\xbf'
p1332
tp1333
Rp1334
ssI500
(dp1335
g3
g4
(g8
S'\x9c\xce\x0c\x9aT\x83Q>'
p1336
tp1337
Rp1338
sg14
F-0.0001396931
sg15
F-0.000139751
sg16
g4
(g8
S'a\xf4p\xc6FP"\xbf'
p1339
tp1340
Rp1341
sssI8
(dp1342
I0
(dp1343
g3
g4
(g8
S';~2\xa1<\xcf]>'
p1344
tp1345
Rp1346
sg14
F1.454761e-05
sg15
F1.44546e-05
sg16
g4
(g8
S'\xd2b\xbc5\xf2o\xee>'
p1347
tp1348
Rp1349
ssI16000
(dp1350
g3
g4
(g8
S'Hh+\xe9\xbd\x12W>'
p1351
tp1352
Rp1353
sg14
F-0.0049527
sg15
F-0.004952787
sg16
g4
(g8
S'`\x82\xfd\x8cPIt\xbf'
p1354
tp1355
Rp1356
ssI900
(dp1357
g3
g4
(g8
S'-\xf1\xbb%\xdb\x98x>'
p1358
tp1359
Rp1360
sg14
F-0.0002644046
sg15
F-0.0002647948
sg16
g4
(g8
S'\xaev\x14W\xdbT1\xbf'
p1361
tp1362
Rp1363
ssI37000
(dp1364
g3
g4
(g8
S'\xe8\xe1\x87\x0f\x1a\xfco>'
p1365
tp1366
Rp1367
sg14
F-0.01147332
sg15
F-0.01147353
sg16
g4
(g8
S'\x8f\xe2\xdf\x11\\\x7f\x87\xbf'
p1368
tp1369
Rp1370
ssI400
(dp1371
g3
g4
(g8
S'Z\x83\xee\x1c\xbe\x98T>'
p1372
tp1373
Rp1374
sg14
F-0.0001093248
sg15
F-0.000109393
sg16
g4
(g8
S'\xe2f\xbam\xf5\xaa\x1c\xbf'
p1375
tp1376
Rp1377
ssI600
(dp1378
g3
g4
(g8
S'\xf5\x9b\xbbS\x18\xa7T>'
p1379
tp1380
Rp1381
sg14
F-0.0001715385
sg15
F-0.0001716127
sg16
g4
(g8
S'\x8f\xe8\xf7\xbd\xa2|&\xbf'
p1382
tp1383
Rp1384
ssI31000
(dp1385
g3
g4
(g8
S'\x83\xb8\xef\xca}\x04Y>'
p1386
tp1387
Rp1388
sg14
F-0.00961041
sg15
F-0.009610482
sg16
g4
(g8
S'q\xa7o\xba\xa4\xae\x83\xbf'
p1389
tp1390
Rp1391
ssI25
(dp1392
g3
g4
(g8
S'#\x0c>\xc5\xf3\x90U>'
p1393
tp1394
Rp1395
sg14
F6.808348e-06
sg15
F6.742031e-06
sg16
g4
(g8
S'U\x16\xa1$.q\xdc>'
p1396
tp1397
Rp1398
ssI800
(dp1399
g3
g4
(g8
S'z\xf5S\xf6\x84\x1fn>'
p1400
tp1401
Rp1402
sg14
F-0.0002332893
sg15
F-0.0002335452
sg16
g4
(g8
S'\x1b&W\x8d\xb8\x95.\xbf'
p1403
tp1404
Rp1405
ssI25000
(dp1406
g3
g4
(g8
S'\x86@\xd7\xde&\xc3[>'
p1407
tp1408
Rp1409
sg14
F-0.007747008
sg15
F-0.007747102
sg16
g4
(g8
S'\x12\xc1\xcapa\xbb\x7f\xbf'
p1410
tp1411
Rp1412
ssI300
(dp1413
g3
g4
(g8
S'ra\xc4\x01W\x84V>'
p1414
tp1415
Rp1416
sg14
F-7.843985e-05
sg15
F-7.851887e-05
sg16
g4
(g8
S'\xbf\xca\xfe\xb6o\x93\x14\xbf'
p1417
tp1418
Rp1419
ssI13000
(dp1420
g3
g4
(g8
S'\x04X\xce\xf1\x8c\xd4Z>'
p1421
tp1422
Rp1423
sg14
F-0.004021368
sg15
F-0.004021459
sg16
g4
(g8
S'\xc9\xe0Vt\xc0xp\xbf'
p1424
tp1425
Rp1426
ssI50
(dp1427
g3
g4
(g8
S'\xd3\x97\xcf\xf7\x8c(e>'
p1428
tp1429
Rp1430
sg14
F-9.628459e-07
sg15
F-1.084945e-06
sg16
g4
(g8
S'\x8c\xfb\xd2A\x01Q\xb1\xbe'
p1431
tp1432
Rp1433
ssI19000
(dp1434
g3
g4
(g8
S'<\x9d\x1e"_!c>'
p1435
tp1436
Rp1437
sg14
F-0.005883868
sg15
F-0.005883991
sg16
g4
(g8
S'l\x0b\x8a:\xc4\x19x\xbf'
p1438
tp1439
Rp1440
ssI700
(dp1441
g3
g4
(g8
S'\x98\x87\xd0\xf9\xf5\x97r>'
p1442
tp1443
Rp1444
sg14
F-0.0002026077
sg15
F-0.0002029116
sg16
g4
(g8
S'\xa2\x17\xa0\x14V\x90*\xbf'
p1445
tp1446
Rp1447
ssI40000
(dp1448
g3
g4
(g8
S'\x0e8\x90]\xa0\xa8o>'
p1449
tp1450
Rp1451
sg14
F-0.01240531
sg15
F-0.01240555
sg16
g4
(g8
S'\x1a$1\xcc\xffg\x89\xbf'
p1452
tp1453
Rp1454
ssI4000
(dp1455
g3
g4
(g8
S'@\xe9\xa6\xf7\xa9eb>'
p1456
tp1457
Rp1458
sg14
F-0.001226766
sg15
F-0.00122688
sg16
g4
(g8
S'\xdd^\xc8i\x99\x19T\xbf'
p1459
tp1460
Rp1461
ssI200
(dp1462
g3
g4
(g8
S'Pe\x16fA\x86Z>'
p1463
tp1464
Rp1465
sg14
F-4.745076e-05
sg15
F-4.754276e-05
sg16
g4
(g8
S'I\xc1\xac\xa8\x8b\xe6\x08\xbf'
p1466
tp1467
Rp1468
ssI75
(dp1469
g3
g4
(g8
S'%\xc7\xbf\xd7\xec\x01^>'
p1470
tp1471
Rp1472
sg14
F-8.507159e-06
sg15
F-8.616168e-06
sg16
g4
(g8
S'%\xf9\xeb\xa0\xe7\xef\xe1\xbe'
p1473
tp1474
Rp1475
ssI34000
(dp1476
g3
g4
(g8
S'\xb7\xda\\\xdaD\xb6j>'
p1477
tp1478
Rp1479
sg14
F-0.01054148
sg15
F-0.01054164
sg16
g4
(g8
S'\x13\x16D\xc2\xcb\x96\x85\xbf'
p1480
tp1481
Rp1482
ssI7000
(dp1483
g3
g4
(g8
S'\x9e\xf5\xd8\xa2\x89\xc0e>'
p1484
tp1485
Rp1486
sg14
F-0.002158107
sg15
F-0.002158254
sg16
g4
(g8
S'\xcbo,\xfd\x05\xaea\xbf'
p1487
tp1488
Rp1489
ssI28000
(dp1490
g3
g4
(g8
S'\x96\xbcf\x87\x92\x00`>'
p1491
tp1492
Rp1493
sg14
F-0.008678684
sg15
F-0.008678783
sg16
g4
(g8
S'\xbb\xd9"\x97&\xc6\x81\xbf'
p1494
tp1495
Rp1496
ssI10000
(dp1497
g3
g4
(g8
S'\xed\r\xfa\xf6\xab5e>'
p1498
tp1499
Rp1500
sg14
F-0.003089414
sg15
F-0.003089547
sg16
g4
(g8
S'\xf7\xb6wQ#Oi\xbf'
p1501
tp1502
Rp1503
ssI100
(dp1504
g3
g4
(g8
S'W\x83w\xd4\xa1\xed`>'
p1505
tp1506
Rp1507
sg14
F-1.636578e-05
sg15
F-1.647262e-05
sg16
g4
(g8
S'\xd1R\xe7\xbfu3\xf1\xbe'
p1508
tp1509
Rp1510
ssI1000
(dp1511
g3
g4
(g8
S'#\xd1_\x8a\xb8\x93z>'
p1512
tp1513
Rp1514
sg14
F-0.0002956805
sg15
F-0.0002961038
sg16
g4
(g8
S'\xb2\xda\xf9\xca\xbba3\xbf'
p1515
tp1516
Rp1517
ssI22000
(dp1518
g3
g4
(g8
S'\xcc\x17\xac\x86\xc7\x1bP>'
p1519
tp1520
Rp1521
sg14
F-0.006815606
sg15
F-0.006815657
sg16
g4
(g8
S'\xce\x16\xf2\x03\xb5\xea{\xbf'
p1522
tp1523
Rp1524
ssI500
(dp1525
g3
g4
(g8
S'\x02\x82\x90\xdc\xe2\xd5V>'
p1526
tp1527
Rp1528
sg14
F-0.0001404942
sg15
F-0.000140593
sg16
g4
(g8
S'\xa5l#m\x08l"\xbf'
p1529
tp1530
Rp1531
sssI9
(dp1532
I0
(dp1533
g3
g4
(g8
S'\x0e\x95]Ro\xa0f>'
p1534
tp1535
Rp1536
sg14
F1.630787e-05
sg15
F1.615124e-05
sg16
g4
(g8
S'\x81\xee\x9f\xba\x9c\x02\xf1>'
p1537
tp1538
Rp1539
ssI16000
(dp1540
g3
g4
(g8
S'\\\xe8O\xdd\x9d\xa0V>'
p1541
tp1542
Rp1543
sg14
F-0.004955751
sg15
F-0.004955814
sg16
g4
(g8
S'\x8c\x004:\x84Lt\xbf'
p1544
tp1545
Rp1546
ssI900
(dp1547
g3
g4
(g8
S'\x03w\xf8<\xa3\xfbp>'
p1548
tp1549
Rp1550
sg14
F-0.0002628035
sg15
F-0.0002630473
sg16
g4
(g8
S'\x06\xf7i\xe3\\<1\xbf'
p1551
tp1552
Rp1553
ssI37000
(dp1554
g3
g4
(g8
S'\x8a\x98\x89,\xdaNq>'
p1555
tp1556
Rp1557
sg14
F-0.01147821
sg15
F-0.01147842
sg16
g4
(g8
S"C^\x11'\xf0\x81\x87\xbf"
p1558
tp1559
Rp1560
ssI400
(dp1561
g3
g4
(g8
S'\xd5\xe3\xf3\xe8w\x0cP>'
p1562
tp1563
Rp1564
sg14
F-0.0001079717
sg15
F-0.0001080303
sg16
g4
(g8
S'\xe2n\x8b\x9drO\x1c\xbf'
p1565
tp1566
Rp1567
ssI600
(dp1568
g3
g4
(g8
S'\xf5\x0e\x8b\x98\xd2\x07^>'
p1569
tp1570
Rp1571
sg14
F-0.0001699649
sg15
F-0.0001700617
sg16
g4
(g8
S']\xadFP\xefH&\xbf'
p1572
tp1573
Rp1574
ssI31000
(dp1575
g3
g4
(g8
S'\x91W`\xaa\xb0\x9an>'
p1576
tp1577
Rp1578
sg14
F-0.009615284
sg15
F-0.009615493
sg16
g4
(g8
S'\xbc\xf0\x03\x8c:\xb1\x83\xbf'
p1579
tp1580
Rp1581
ssI25
(dp1582
g3
g4
(g8
S'1Y\x01aP\x7fQ>'
p1583
tp1584
Rp1585
sg14
F8.465243e-06
sg15
F8.409912e-06
sg16
g4
(g8
S'\xa5\xcb\x96\x99\xef\xb1\xe1>'
p1586
tp1587
Rp1588
ssI800
(dp1589
g3
g4
(g8
S'\xe1B\xfe\xe2n\xfcp>'
p1590
tp1591
Rp1592
sg14
F-0.0002318614
sg15
F-0.000232134
sg16
g4
(g8
S'\xe0\xe3!\x9dgk.\xbf'
p1593
tp1594
Rp1595
ssI25000
(dp1596
g3
g4
(g8
S'\xe5\xcep\x04`\xabf>'
p1597
tp1598
Rp1599
sg14
F-0.00775185
sg15
F-0.007751995
sg16
g4
(g8
S'6+\xe1\x1c|\xc0\x7f\xbf'
p1600
tp1601
Rp1602
ssI300
(dp1603
g3
g4
(g8
S'p)\xd5\xe9iNQ>'
p1604
tp1605
Rp1606
sg14
F-7.695043e-05
sg15
F-7.702534e-05
sg16
g4
(g8
S'}6\xefb\x91.\x14\xbf'
p1607
tp1608
Rp1609
ssI13000
(dp1610
g3
g4
(g8
S'\x9bJ\x9e \x95\xaea>'
p1611
tp1612
Rp1613
sg14
F-0.004023493
sg15
F-0.004023598
sg16
g4
(g8
S'\xc73#\x9a\xfezp\xbf'
p1614
tp1615
Rp1616
ssI50
(dp1617
g3
g4
(g8
S'_H\xa12\xc5\x8da>'
p1618
tp1619
Rp1620
sg14
F6.856303e-07
sg15
F5.542969e-07
sg16
g4
(g8
S'\xd31\xcd*\xc3J\xa4>'
p1621
tp1622
Rp1623
ssI19000
(dp1624
g3
g4
(g8
S'\x0ft\t*\xf1D`>'
p1625
tp1626
Rp1627
sg14
F-0.005887399
sg15
F-0.00588752
sg16
g4
(g8
S'.\x9fu\xabr\x1dx\xbf'
p1628
tp1629
Rp1630
ssI700
(dp1631
g3
g4
(g8
S'\xe3Qz \x92\xe6y>'
p1632
tp1633
Rp1634
sg14
F-0.0002007396
sg15
F-0.0002011606
sg16
g4
(g8
S'\x83OTU\x97[*\xbf'
p1635
tp1636
Rp1637
ssI40000
(dp1638
g3
g4
(g8
S'r\xa3?\xddB\xb0s>'
p1639
tp1640
Rp1641
sg14
F-0.01240949
sg15
F-0.01240973
sg16
g4
(g8
S'Ox&\x8b1j\x89\xbf'
p1642
tp1643
Rp1644
ssI4000
(dp1645
g3
g4
(g8
S"\xd2\xd9k\xf5'\xe2|>"
p1646
tp1647
Rp1648
sg14
F-0.00122665
sg15
F-0.001227117
sg16
g4
(g8
S'.\x19xKA\x19T\xbf'
p1649
tp1650
Rp1651
ssI200
(dp1652
g3
g4
(g8
S'\xd8G\xee:\xd3\xbdW>'
p1653
tp1654
Rp1655
sg14
F-4.58489e-05
sg15
F-4.593004e-05
sg16
g4
(g8
S'\x80\x9d\xfdx\x19\x0e\x08\xbf'
p1656
tp1657
Rp1658
ssI75
(dp1659
g3
g4
(g8
S'\x17\x82\x15\xaaO\xf3V>'
p1660
tp1661
Rp1662
sg14
F-6.846586e-06
sg15
F-6.917413e-06
sg16
g4
(g8
S'\x1e\xcd\x02,\x0c\xe8\xdc\xbe'
p1663
tp1664
Rp1665
ssI34000
(dp1666
g3
g4
(g8
S'\xa1\xbbr,%\xcab>'
p1667
tp1668
Rp1669
sg14
F-0.01054655
sg15
F-0.01054668
sg16
g4
(g8
S'\xb4\x95S\x10t\x99\x85\xbf'
p1670
tp1671
Rp1672
ssI7000
(dp1673
g3
g4
(g8
S'\xa1\xcb\xf8\xcb\xfb\xcdT>'
p1674
tp1675
Rp1676
sg14
F-0.00215896
sg15
F-0.002159035
sg16
g4
(g8
S'\x8c\xeb\xda\x0b\xbf\xafa\xbf'
p1677
tp1678
Rp1679
ssI28000
(dp1680
g3
g4
(g8
S'g\x0cn\xb9w#`>'
p1681
tp1682
Rp1683
sg14
F-0.008683389
sg15
F-0.008683485
sg16
g4
(g8
S'k\xc5\xba\xde\x9d\xc8\x81\xbf'
p1684
tp1685
Rp1686
ssI10000
(dp1687
g3
g4
(g8
S'c\x0e$\xf4\x9b*Q>'
p1688
tp1689
Rp1690
sg14
F-0.003090863
sg15
F-0.00309091
sg16
g4
(g8
S'\x9f\x88\x94R\x0fRi\xbf'
p1691
tp1692
Rp1693
ssI100
(dp1694
g3
g4
(g8
S"\xbb\xda\xfb)'GY>"
p1695
tp1696
Rp1697
sg14
F-1.47122e-05
sg15
F-1.479274e-05
sg16
g4
(g8
S'\xe9\xeeZ\xc7\x15\xf2\xee\xbe'
p1698
tp1699
Rp1700
ssI1000
(dp1701
g3
g4
(g8
S'\xef\xa3\xf2\xc2\xe9\xf6|>'
p1702
tp1703
Rp1704
sg14
F-0.0002941004
sg15
F-0.0002945624
sg16
g4
(g8
S'@\x1a\x94\xc3BG3\xbf'
p1705
tp1706
Rp1707
ssI22000
(dp1708
g3
g4
(g8
S'\x9f_rb\xc4N`>'
p1709
tp1710
Rp1711
sg14
F-0.006820051
sg15
F-0.006820178
sg16
g4
(g8
S'5,F]k\xef{\xbf'
p1712
tp1713
Rp1714
ssI500
(dp1715
g3
g4
(g8
S': \x856K\xa5\\>'
p1716
tp1717
Rp1718
sg14
F-0.0001388641
sg15
F-0.000138966
sg16
g4
(g8
S'"Q\x96\x80\\5"\xbf'
p1719
tp1720
Rp1721
sssI10
(dp1722
I0
(dp1723
g3
g4
(g8
S'AOf\x81\xb1\xc4h>'
p1724
tp1725
Rp1726
sg14
F1.258424e-05
sg15
F1.242815e-05
sg16
g4
(g8
S'E)\xfb\xe1\xa9F\xea>'
p1727
tp1728
Rp1729
ssI16000
(dp1730
g3
g4
(g8
S'\xf0\xc7\x12\xe3)\x9eZ>'
p1731
tp1732
Rp1733
sg14
F-0.004955657
sg15
F-0.00495575
sg16
g4
(g8
S'u\x91\xfb\x83lLt\xbf'
p1734
tp1735
Rp1736
ssI900
(dp1737
g3
g4
(g8
S'?\xfaw\x90\xc8Cq>'
p1738
tp1739
Rp1740
sg14
F-0.0002663455
sg15
F-0.0002666474
sg16
g4
(g8
S'\xa7\xff\x89\x16\xf8u1\xbf'
p1741
tp1742
Rp1743
ssI37000
(dp1744
g3
g4
(g8
S'\x03\x00\x19\x84 >j>'
p1745
tp1746
Rp1747
sg14
F-0.01148086
sg15
F-0.01148103
sg16
g4
(g8
S'\x05"\x7f\xc1R\x83\x87\xbf'
p1748
tp1749
Rp1750
ssI400
(dp1751
g3
g4
(g8
S'\x1f\xc2\xbe\xe1\x0c\xbcU>'
p1752
tp1753
Rp1754
sg14
F-0.00011142
sg15
F-0.0001115044
sg16
g4
(g8
S' 5>&K8\x1d\xbf'
p1755
tp1756
Rp1757
ssI600
(dp1758
g3
g4
(g8
S'\xe8\xfd\x8d\xdc\x18\rT>'
p1759
tp1760
Rp1761
sg14
F-0.0001734235
sg15
F-0.0001735012
sg16
g4
(g8
S'Z\x84k\xb0O\xbc&\xbf'
p1762
tp1763
Rp1764
ssI31000
(dp1765
g3
g4
(g8
S'p;\xee\xc3\xf6\xac`>'
p1766
tp1767
Rp1768
sg14
F-0.009617187
sg15
F-0.009617276
sg16
g4
(g8
S'\xda\x08\xeeF2\xb2\x83\xbf'
p1769
tp1770
Rp1771
ssI25
(dp1772
g3
g4
(g8
S'g\xe7\xcc\x05\xa8\x13T>'
p1773
tp1774
Rp1775
sg14
F5.086978e-06
sg15
F5.019263e-06
sg16
g4
(g8
S'>i\xf7_\xc24\xd5>'
p1776
tp1777
Rp1778
ssI800
(dp1779
g3
g4
(g8
S'\xb89d\xda\xff\xc0|>'
p1780
tp1781
Rp1782
sg14
F-0.000235474
sg15
F-0.0002359464
sg16
g4
(g8
S'L\xe5\xcfB\x1a\xe0.\xbf'
p1783
tp1784
Rp1785
ssI25000
(dp1786
g3
g4
(g8
S'\xffy\xb5\xd6\xca\x92[>'
p1787
tp1788
Rp1789
sg14
F-0.007752174
sg15
F-0.007752259
sg16
g4
(g8
S'\x8f\x1d\xbb\x1a\xcb\xc0\x7f\xbf'
p1790
tp1791
Rp1792
ssI300
(dp1793
g3
g4
(g8
S'1\xc7\x83\x00\xa8\xc5a>'
p1794
tp1795
Rp1796
sg14
F-8.022266e-05
sg15
F-8.033015e-05
sg16
g4
(g8
S'3\xf6\x9e\xd1\x0c\x0c\x15\xbf'
p1797
tp1798
Rp1799
ssI13000
(dp1800
g3
g4
(g8
S"7\x8f\x0fp\xb1'S>"
p1801
tp1802
Rp1803
sg14
F-0.00402417
sg15
F-0.004024229
sg16
g4
(g8
S'\xc5 f\xa8\xad{p\xbf'
p1804
tp1805
Rp1806
ssI50
(dp1807
g3
g4
(g8
S'\xafq\x8dD\xf2ST>'
p1808
tp1809
Rp1810
sg14
F-2.768978e-06
sg15
F-2.843765e-06
sg16
g4
(g8
S'\xa0lD\xfc\xa5\x92\xc7\xbe'
p1811
tp1812
Rp1813
ssI19000
(dp1814
g3
g4
(g8
S'\xec\x08\xf9\xe2wkT>'
p1815
tp1816
Rp1817
sg14
F-0.005887775
sg15
F-0.005887837
sg16
g4
(g8
S'\x01\x9dvq\xd0\x1dx\xbf'
p1818
tp1819
Rp1820
ssI700
(dp1821
g3
g4
(g8
S"\xa4\xc6b\xcb'Qu>"
p1822
tp1823
Rp1824
sg14
F-0.0002042622
sg15
F-0.0002045996
sg16
g4
(g8
S'4!g\xf1\xb3\xcf*\xbf'
p1825
tp1826
Rp1827
ssI40000
(dp1828
g3
g4
(g8
S'\x84\x92\x94\xc0\xfb\xbbd>'
p1829
tp1830
Rp1831
sg14
F-0.01241318
sg15
F-0.01241333
sg16
g4
(g8
S'"\x8fZ>\x1cl\x89\xbf'
p1832
tp1833
Rp1834
ssI4000
(dp1835
g3
g4
(g8
S'0/\x1a\xd0P\xc2\x80>'
p1836
tp1837
Rp1838
sg14
F-0.001229481
sg15
F-0.001230009
sg16
g4
(g8
S'0\xa3I\xfa\x1c%T\xbf'
p1839
tp1840
Rp1841
ssI200
(dp1842
g3
g4
(g8
S'\x07\x1a\xb6_\x8f_U>'
p1843
tp1844
Rp1845
sg14
F-4.923659e-05
sg15
F-4.93125e-05
sg16
g4
(g8
S'\x82\x07\xbe\xca7\xd4\t\xbf'
p1846
tp1847
Rp1848
ssI75
(dp1849
g3
g4
(g8
S'X_\x91R2\xd4Z>'
p1850
tp1851
Rp1852
sg14
F-1.067191e-05
sg15
F-1.075211e-05
sg16
g4
(g8
S'\xf7\x03K\xe3\x81v\xe6\xbe'
p1853
tp1854
Rp1855
ssI34000
(dp1856
g3
g4
(g8
S'w\t02t\x8ag>'
p1857
tp1858
Rp1859
sg14
F-0.01054858
sg15
F-0.01054876
sg16
g4
(g8
S'\xa7\xd4sr\x89\x9a\x85\xbf'
p1860
tp1861
Rp1862
ssI7000
(dp1863
g3
g4
(g8
S'u!\xc0\xb8*\xccS>'
p1864
tp1865
Rp1866
sg14
F-0.002160921
sg15
F-0.002161002
sg16
g4
(g8
S'`pW\xf7\xdf\xb3a\xbf'
p1867
tp1868
Rp1869
ssI28000
(dp1870
g3
g4
(g8
S'\x81\xc0L$_\xecR>'
p1871
tp1872
Rp1873
sg14
F-0.008684534
sg15
F-0.008684598
sg16
g4
(g8
S'\x90\xf1\n|6\xc9\x81\xbf'
p1874
tp1875
Rp1876
ssI10000
(dp1877
g3
g4
(g8
S'\xe1\x91\xad\x8cd\xb2S>'
p1878
tp1879
Rp1880
sg14
F-0.003092261
sg15
F-0.003092334
sg16
g4
(g8
S'\x99\xaf\xa6\x05\x03Ui\xbf'
p1881
tp1882
Rp1883
ssI100
(dp1884
g3
g4
(g8
S'\rx\xf9X\xe7h[>'
p1885
tp1886
Rp1887
sg14
F-1.814446e-05
sg15
F-1.823892e-05
sg16
g4
(g8
S':z\xf7\xd9\xfc\x13\xf3\xbe'
p1888
tp1889
Rp1890
ssI1000
(dp1891
g3
g4
(g8
S'\xb7S\xf93~]w>'
p1892
tp1893
Rp1894
sg14
F-0.0002975533
sg15
F-0.0002979283
sg16
g4
(g8
S'\xe1c\xe0X\x0b\x813\xbf'
p1895
tp1896
Rp1897
ssI22000
(dp1898
g3
g4
(g8
S'\x13\x19W\x02\xea\xaa\\>'
p1899
tp1900
Rp1901
sg14
F-0.006820496
sg15
F-0.006820582
sg16
g4
(g8
S'J\x9e\x96 \xdd\xef{\xbf'
p1902
tp1903
Rp1904
ssI500
(dp1905
g3
g4
(g8
S'^\xdfH%*\xd6R>'
p1906
tp1907
Rp1908
sg14
F-0.0001422817
sg15
F-0.0001423404
sg16
g4
(g8
S'\x02\x8fn\xec\x01\xa7"\xbf'
p1909
tp1910
Rp1911
sssI11
(dp1912
I0
(dp1913
g3
g4
(g8
S'\x88\xcc\x8e\xa3\xadsa>'
p1914
tp1915
Rp1916
sg14
F1.459645e-05
sg15
F1.449134e-05
sg16
g4
(g8
S'\xec\xc4\xf3\xa3\xea{\xee>'
p1917
tp1918
Rp1919
ssI16000
(dp1920
g3
g4
(g8
S'\xd1\xc0\xe5\xca\xd3\xbcb>'
p1921
tp1922
Rp1923
sg14
F-0.004954436
sg15
F-0.004954545
sg16
g4
(g8
S'`\xd6\xbf=&Kt\xbf'
p1924
tp1925
Rp1926
ssI900
(dp1927
g3
g4
(g8
S'e\xec)\x84K8b>'
p1928
tp1929
Rp1930
sg14
F-0.0002642718
sg15
F-0.0002644173
sg16
g4
(g8
S'\x82\xb6\x18\xbb\x98S1\xbf'
p1931
tp1932
Rp1933
ssI37000
(dp1934
g3
g4
(g8
S'BYV7\xd5#j>'
p1935
tp1936
Rp1937
sg14
F-0.01147427
sg15
F-0.01147448
sg16
g4
(g8
S'\x9f\xb8\xe4\x04\xe2\x7f\x87\xbf'
p1938
tp1939
Rp1940
ssI400
(dp1941
g3
g4
(g8
S'q5q\x9b\x049Z>'
p1942
tp1943
Rp1944
sg14
F-0.0001092561
sg15
F-0.0001093412
sg16
g4
(g8
S';\xa1\xa8\xe5x\xa6\x1c\xbf'
p1945
tp1946
Rp1947
ssI600
(dp1948
g3
g4
(g8
S'v\xfb\xd5\xafG\x1eU>'
p1949
tp1950
Rp1951
sg14
F-0.0001712545
sg15
F-0.0001713151
sg16
g4
(g8
S'\xcf\xfdP\x006s&\xbf'
p1952
tp1953
Rp1954
ssI31000
(dp1955
g3
g4
(g8
S'M\xc0\xc4M\x1a\xa3g>'
p1956
tp1957
Rp1958
sg14
F-0.00961192
sg15
F-0.009612066
sg16
g4
(g8
S'\x85\xb4\x05Nv\xaf\x83\xbf'
p1959
tp1960
Rp1961
ssI25
(dp1962
g3
g4
(g8
S'\x95\xe9\xc2z\x8f4W>'
p1963
tp1964
Rp1965
sg14
F7.107581e-06
sg15
F7.028619e-06
sg16
g4
(g8
S'z\\\x94\xab\xb8\xa3\xdd>'
p1966
tp1967
Rp1968
ssI800
(dp1969
g3
g4
(g8
S'\x0c\x85\xd4\x10\xe6\x8b~>'
p1970
tp1971
Rp1972
sg14
F-0.0002333407
sg15
F-0.0002338145
sg16
g4
(g8
S'r\xd9\xc9\x9b`\x97.\xbf'
p1973
tp1974
Rp1975
ssI25000
(dp1976
g3
g4
(g8
S'\xbe\xc8\xbc\xd4\xf4\x08j>'
p1977
tp1978
Rp1979
sg14
F-0.007748884
sg15
F-0.007749029
sg16
g4
(g8
S',J\xcf\x8fa\xbd\x7f\xbf'
p1980
tp1981
Rp1982
ssI300
(dp1983
g3
g4
(g8
S'^\xed\x8c\x89%XT>'
p1984
tp1985
Rp1986
sg14
F-7.821759e-05
sg15
F-7.828806e-05
sg16
g4
(g8
S'\t\xfa\xe4\xfe\x07\x84\x14\xbf'
p1987
tp1988
Rp1989
ssI13000
(dp1990
g3
g4
(g8
S'f\xab\xa79\xa3\x01d>'
p1991
tp1992
Rp1993
sg14
F-0.004022737
sg15
F-0.004022859
sg16
g4
(g8
S'\x8b8\xe497zp\xbf'
p1994
tp1995
Rp1996
ssI50
(dp1997
g3
g4
(g8
S'\xebf\xa85\x11y^>'
p1998
tp1999
Rp2000
sg14
F-6.734408e-07
sg15
F-7.791462e-07
sg16
g4
(g8
S'\x96\x8c\x8b\xb3\x9d\x15\xa8\xbe'
p2001
tp2002
Rp2003
ssI19000
(dp2004
g3
g4
(g8
S'\xe8j=\x94fyY>'
p2005
tp2006
Rp2007
sg14
F-0.005885566
sg15
F-0.005885655
sg16
g4
(g8
S'/\x1d\xe7z\x84\x1bx\xbf'
p2008
tp2009
Rp2010
ssI700
(dp2011
g3
g4
(g8
S'\x8cg\x99S\xa9\xe9z>'
p2012
tp2013
Rp2014
sg14
F-0.0002023736
sg15
F-0.0002028032
sg16
g4
(g8
S'\xee\xd6\xa8\x18\x98\x88*\xbf'
p2015
tp2016
Rp2017
ssI40000
(dp2018
g3
g4
(g8
S'\xc4\x96;d\xdd\xbck>'
p2019
tp2020
Rp2021
sg14
F-0.01240544
sg15
F-0.01240564
sg16
g4
(g8
S'fw\x97w\x14h\x89\xbf'
p2022
tp2023
Rp2024
ssI4000
(dp2025
g3
g4
(g8
S'dI\x14\xb3\x81\xda]>'
p2026
tp2027
Rp2028
sg14
F-0.001227468
sg15
F-0.001227577
sg16
g4
(g8
S'y` \x07\xa8\x1cT\xbf'
p2029
tp2030
Rp2031
ssI200
(dp2032
g3
g4
(g8
S'\r\xf3<BqYV>'
p2033
tp2034
Rp2035
sg14
F-4.721926e-05
sg15
F-4.730409e-05
sg16
g4
(g8
S'bb\xdeV@\xc6\x08\xbf'
p2036
tp2037
Rp2038
ssI75
(dp2039
g3
g4
(g8
S'A\xe5\xcc7\xcdS`>'
p2040
tp2041
Rp2042
sg14
F-8.480144e-06
sg15
F-8.608149e-06
sg16
g4
(g8
S'\x8f\x9d\x90\xae\xe9\xe6\xe1\xbe'
p2043
tp2044
Rp2045
ssI34000
(dp2046
g3
g4
(g8
S'8\x810\x93\x14\xd2d>'
p2047
tp2048
Rp2049
sg14
F-0.01054268
sg15
F-0.01054281
sg16
g4
(g8
S'\xe5\x82=jo\x97\x85\xbf'
p2050
tp2051
Rp2052
ssI7000
(dp2053
g3
g4
(g8
S'\x8b\xc7\r\xdd\x83\xa2U>'
p2054
tp2055
Rp2056
sg14
F-0.00215941
sg15
F-0.002159491
sg16
g4
(g8
S'\x16\x9a6$\xb2\xb0a\xbf'
p2057
tp2058
Rp2059
ssI28000
(dp2060
g3
g4
(g8
S'\t\x9c\xd0Y\x91fQ>'
p2061
tp2062
Rp2063
sg14
F-0.00868023
sg15
F-0.008680282
sg16
g4
(g8
S'\x02\xb4\xf0j\xf4\xc6\x81\xbf'
p2064
tp2065
Rp2066
ssI10000
(dp2067
g3
g4
(g8
S'\x05R9+(\xb1b>'
p2068
tp2069
Rp2070
sg14
F-0.003091179
sg15
F-0.003091306
sg16
g4
(g8
S'\xe3\x9aQ\xa2\xd1Ri\xbf'
p2071
tp2072
Rp2073
ssI100
(dp2074
g3
g4
(g8
S'M\xe9\xf8\xd5|\xacU>'
p2075
tp2076
Rp2077
sg14
F-1.6192e-05
sg15
F-1.626388e-05
sg16
g4
(g8
S'\x92$\xf0\x95\xa5\x07\xf1\xbe'
p2078
tp2079
Rp2080
ssI1000
(dp2081
g3
g4
(g8
S':\x7f\xb7\x1d\xaf\xc3|>'
p2082
tp2083
Rp2084
sg14
F-0.0002952922
sg15
F-0.0002957623
sg16
g4
(g8
S'2\x034\x11\x7f[3\xbf'
p2085
tp2086
Rp2087
ssI22000
(dp2088
g3
g4
(g8
S']\xcc\xa5\xb6\x11\xd4Y>'
p2089
tp2090
Rp2091
sg14
F-0.006817388
sg15
F-0.006817476
sg16
g4
(g8
S'\xf6\x84\xaao\x9a\xec{\xbf'
p2092
tp2093
Rp2094
ssI500
(dp2095
g3
g4
(g8
S'\xbd\xc3Tb\x81|Q>'
p2096
tp2097
Rp2098
sg14
F-0.0001404172
sg15
F-0.0001404766
sg16
g4
(g8
S'\xdcG\xf9\xd6\x88h"\xbf'
p2099
tp2100
Rp2101
sssI12
(dp2102
I0
(dp2103
g3
g4
(g8
S'\xc0\x1c\x10\x0f\xee\xcbe>'
p2104
tp2105
Rp2106
sg14
F1.179901e-05
sg15
F1.165747e-05
sg16
g4
(g8
S'\x0fmN,\x15\x94\xe8>'
p2107
tp2108
Rp2109
ssI16000
(dp2110
g3
g4
(g8
S'\xcd\xbfi\t\xb8\x0fX>'
p2111
tp2112
Rp2113
sg14
F-0.004958297
sg15
F-0.004958378
sg16
g4
(g8
S'\x8a\xea7\x980Ot\xbf'
p2114
tp2115
Rp2116
ssI900
(dp2117
g3
g4
(g8
S'C\rK8\x917s>'
p2118
tp2119
Rp2120
sg14
F-0.0002674306
sg15
F-0.000267755
sg16
g4
(g8
S'S,\xf4Y\xda\x871\xbf'
p2121
tp2122
Rp2123
ssI37000
(dp2124
g3
g4
(g8
S'P\xe0\x9a\x1b\xdbRr>'
p2125
tp2126
Rp2127
sg14
F-0.01148432
sg15
F-0.01148455
sg16
g4
(g8
S'^~\xf0n"\x85\x87\xbf'
p2128
tp2129
Rp2130
ssI400
(dp2131
g3
g4
(g8
S'\x08+\xb0\xbc\x8f\xeeO>'
p2132
tp2133
Rp2134
sg14
F-0.0001121605
sg15
F-0.0001122163
sg16
g4
(g8
S'K\x88\x1c\xa3\x0bi\x1d\xbf'
p2135
tp2136
Rp2137
ssI600
(dp2138
g3
g4
(g8
S'x\xb9\xa0\x1c\xe6HZ>'
p2139
tp2140
Rp2141
sg14
F-0.0001744297
sg15
F-0.0001745278
sg16
g4
(g8
S'$\xa2\xf2\xdb\x15\xde&\xbf'
p2142
tp2143
Rp2144
ssI31000
(dp2145
g3
g4
(g8
S'\x160\xc8\x07\xe2ae>'
p2146
tp2147
Rp2148
sg14
F-0.009619291
sg15
F-0.009619428
sg16
g4
(g8
S'&\xffX\xe3M\xb3\x83\xbf'
p2149
tp2150
Rp2151
ssI25
(dp2152
g3
g4
(g8
S'\x13/%\xda\x19\x8fQ>'
p2153
tp2154
Rp2155
sg14
F3.968674e-06
sg15
F3.909753e-06
sg16
g4
(g8
S'\x90\xa5\xe2a\xcb\x7f\xd0>'
p2156
tp2157
Rp2158
ssI800
(dp2159
g3
g4
(g8
S'\xab\xec\xddLk\xe2s>'
p2160
tp2161
Rp2162
sg14
F-0.0002362638
sg15
F-0.000236586
sg16
g4
(g8
S'\ro\x84\x10\xa6\xf9.\xbf'
p2163
tp2164
Rp2165
ssI25000
(dp2166
g3
g4
(g8
S'\xe0\x94\xecr9\x0ba>'
p2167
tp2168
Rp2169
sg14
F-0.007754473
sg15
F-0.007754588
sg16
g4
(g8
S')\xb1\x00\xec6\xc3\x7f\xbf'
p2170
tp2171
Rp2172
ssI300
(dp2173
g3
g4
(g8
S'\x0c\xd4\xf6>\xfbYZ>'
p2174
tp2175
Rp2176
sg14
F-8.101526e-05
sg15
F-8.10913e-05
sg16
g4
(g8
S'`\xe9\xb5\xd4\x16?\x15\xbf'
p2177
tp2178
Rp2179
ssI13000
(dp2180
g3
g4
(g8
S'o\x97d\xc1\x11\x7fV>'
p2181
tp2182
Rp2183
sg14
F-0.004026345
sg15
F-0.004026416
sg16
g4
(g8
S'\x8c\xa6rS\xf5}p\xbf'
p2184
tp2185
Rp2186
ssI50
(dp2187
g3
g4
(g8
S'\xe4\xe5q|]nS>'
p2188
tp2189
Rp2190
sg14
F-3.489353e-06
sg15
F-3.561853e-06
sg16
g4
(g8
S'^"\x03%\x01\x97\xcd\xbe'
p2191
tp2192
Rp2193
ssI19000
(dp2194
g3
g4
(g8
S'\xdb\x85\xe3In\x9bS>'
p2195
tp2196
Rp2197
sg14
F-0.005890242
sg15
F-0.005890305
sg16
g4
(g8
S'\xaa7\x12Ge x\xbf'
p2198
tp2199
Rp2200
ssI700
(dp2201
g3
g4
(g8
S'\x8e\xc2\xfc\x8d\xc2\x8fc>'
p2202
tp2203
Rp2204
sg14
F-0.0002050686
sg15
F-0.0002052217
sg16
g4
(g8
S'\xd6\xae>q\xea\xe4*\xbf'
p2205
tp2206
Rp2207
ssI40000
(dp2208
g3
g4
(g8
S'\x1a\xbd\x04\x9d\n~s>'
p2209
tp2210
Rp2211
sg14
F-0.01241708
sg15
F-0.01241733
sg16
g4
(g8
S'\xcb\xb3\xc7\x17+n\x89\xbf'
p2212
tp2213
Rp2214
ssI4000
(dp2215
g3
g4
(g8
S'\xf7\x06\xb4K\x0c\x8b}>'
p2216
tp2217
Rp2218
sg14
F-0.001230502
sg15
F-0.001230973
sg16
g4
(g8
S'\xb0.i3g)T\xbf'
p2219
tp2220
Rp2221
ssI200
(dp2222
g3
g4
(g8
S'\xf5\xee\xbc\x82\x95\x9fS>'
p2223
tp2224
Rp2225
sg14
F-5.022437e-05
sg15
F-5.029948e-05
sg16
g4
(g8
S'rB\xd7`\x9cY\n\xbf'
p2226
tp2227
Rp2228
ssI75
(dp2229
g3
g4
(g8
S'9\xd9\x00\xa3\x14jO>'
p2230
tp2231
Rp2232
sg14
F-1.130444e-05
sg15
F-1.135474e-05
sg16
g4
(g8
S'k\x84\xb0\x14\xcd\xc0\xe7\xbe'
p2233
tp2234
Rp2235
ssI34000
(dp2236
g3
g4
(g8
S'\xa6\xc1-\xce\xb8\x83p>'
p2237
tp2238
Rp2239
sg14
F-0.01055134
sg15
F-0.01055157
sg16
g4
(g8
S'\xce\xe1\xdcU\xfc\x9b\x85\xbf'
p2240
tp2241
Rp2242
ssI7000
(dp2243
g3
g4
(g8
S'A1\tH\x0b\x84c>'
p2244
tp2245
Rp2246
sg14
F-0.00216235
sg15
F-0.002162462
sg16
g4
(g8
S'\x1cf\xd5\x15\xe0\xb6a\xbf'
p2247
tp2248
Rp2249
ssI28000
(dp2250
g3
g4
(g8
S'"J\xf2-\x92\xe2`>'
p2251
tp2252
Rp2253
sg14
F-0.008686846
sg15
F-0.008686955
sg16
g4
(g8
S'\xe1^\x9a\x9fo\xca\x81\xbf'
p2254
tp2255
Rp2256
ssI10000
(dp2257
g3
g4
(g8
S'\x85\xdc\xe2\x91\xa47]>'
p2258
tp2259
Rp2260
sg14
F-0.003094157
sg15
F-0.003094265
sg16
g4
(g8
S'7\xbed\xd7\x05Yi\xbf'
p2261
tp2262
Rp2263
ssI100
(dp2264
g3
g4
(g8
S'.\xb9\xe3\xd7\xc4\xb4V>'
p2265
tp2266
Rp2267
sg14
F-1.913801e-05
sg15
F-1.922224e-05
sg16
g4
(g8
S'\xda\x01\xe4fH\x1d\xf4\xbe'
p2268
tp2269
Rp2270
ssI1000
(dp2271
g3
g4
(g8
S'\xbe/\x1a8"yv>'
p2272
tp2273
Rp2274
sg14
F-0.0002982436
sg15
F-0.0002986097
sg16
g4
(g8
S'\x1d\tB\xb7\xc9\x903\xbf'
p2275
tp2276
Rp2277
ssI22000
(dp2278
g3
g4
(g8
S'\xfcH\x1e\xdaj\xfcN>'
p2279
tp2280
Rp2281
sg14
F-0.00682268
sg15
F-0.006822733
sg16
g4
(g8
S'\xd9Z\xf1\xe8\x1f\xf2{\xbf'
p2282
tp2283
Rp2284
ssI500
(dp2285
g3
g4
(g8
S')vcp\xfc\xe3S>'
p2286
tp2287
Rp2288
sg14
F-0.0001432477
sg15
F-0.0001433125
sg16
g4
(g8
S'\xd1\x1d\x85C\xbe\xc7"\xbf'
p2289
tp2290
Rp2291
sssI13
(dp2292
I0
(dp2293
g3
g4
(g8
S'\x16\x1cl\xce\xf6\xb3^>'
p2294
tp2295
Rp2296
sg14
F1.216352e-05
sg15
F1.206556e-05
sg16
g4
(g8
S'\xd0\x92\x82\xe1,e\xe9>'
p2297
tp2298
Rp2299
ssI16000
(dp2300
g3
g4
(g8
S'\xd9{\x06\xa9\xbe}T>'
p2301
tp2302
Rp2303
sg14
F-0.004956759
sg15
F-0.004956824
sg16
g4
(g8
S'U\x08c=\x93Mt\xbf'
p2304
tp2305
Rp2306
ssI900
(dp2307
g3
g4
(g8
S'\x1e\xd9\x0cKc\xc5\x7f>'
p2308
tp2309
Rp2310
sg14
F-0.0002670195
sg15
F-0.0002675326
sg16
g4
(g8
S'\xd4\x8a\xc1\x83\x1a\x811\xbf'
p2311
tp2312
Rp2313
ssI37000
(dp2314
g3
g4
(g8
S'\xbcs\xc9\x05\xa4\xf9}>'
p2315
tp2316
Rp2317
sg14
F-0.01147472
sg15
F-0.01147511
sg16
g4
(g8
S'\xae\xa0\xb0^!\x80\x87\xbf'
p2318
tp2319
Rp2320
ssI400
(dp2321
g3
g4
(g8
S'\x84\xd1\xa5VH\x96R>'
p2322
tp2323
Rp2324
sg14
F-0.0001118468
sg15
F-0.0001119049
sg16
g4
(g8
S'\xe3\xdb\xbfL\xebS\x1d\xbf'
p2325
tp2326
Rp2327
ssI600
(dp2328
g3
g4
(g8
S't\x8a5K\xbb\xeeT>'
p2329
tp2330
Rp2331
sg14
F-0.0001741402
sg15
F-0.0001742117
sg16
g4
(g8
S'7>\xac\xfeG\xd4&\xbf'
p2332
tp2333
Rp2334
ssI31000
(dp2335
g3
g4
(g8
S'\xeb\xdb\xc7\xf2\x0f\xe2r>'
p2336
tp2337
Rp2338
sg14
F-0.009612346
sg15
F-0.009612612
sg16
g4
(g8
S'\xb1\xdbF\x87\xb0\xaf\x83\xbf'
p2339
tp2340
Rp2341
ssI25
(dp2342
g3
g4
(g8
S' \x91b\x100nM>'
p2343
tp2344
Rp2345
sg14
F4.631176e-06
sg15
F4.584662e-06
sg16
g4
(g8
S'\x96I#\x90\x8cZ\xd3>'
p2346
tp2347
Rp2348
ssI800
(dp2349
g3
g4
(g8
S'\x1bI\x01\xc97\xfdd>'
p2350
tp2351
Rp2352
sg14
F-0.0002359907
sg15
F-0.0002361654
sg16
g4
(g8
S'\xaf\xcb\x0b\xe6\x05\xf0.\xbf'
p2353
tp2354
Rp2355
ssI25000
(dp2356
g3
g4
(g8
S'\x9a[\x16W)7a>'
p2357
tp2358
Rp2359
sg14
F-0.007750202
sg15
F-0.007750318
sg16
g4
(g8
S'\xc0\x0e\xb3\x0c\xb8\xbe\x7f\xbf'
p2360
tp2361
Rp2362
ssI300
(dp2363
g3
g4
(g8
S'(Z\xdaC\x89\xb7\\>'
p2364
tp2365
Rp2366
sg14
F-8.067823e-05
sg15
F-8.078439e-05
sg16
g4
(g8
S'\xa5\xdf\xb8_\xa8*\x15\xbf'
p2367
tp2368
Rp2369
ssI13000
(dp2370
g3
g4
(g8
S'\x0f\x9a\x8b\x86e\x1dR>'
p2371
tp2372
Rp2373
sg14
F-0.004025103
sg15
F-0.004025167
sg16
g4
(g8
S'\xd4\xf1fx\xaa|p\xbf'
p2374
tp2375
Rp2376
ssI50
(dp2377
g3
g4
(g8
S'\x946\x9c#Z\xecU>'
p2378
tp2379
Rp2380
sg14
F-3.154646e-06
sg15
F-3.22193e-06
sg16
g4
(g8
S'\xdc\xa4\x1e\xb9A\xbc\xca\xbe'
p2381
tp2382
Rp2383
ssI19000
(dp2384
g3
g4
(g8
S'Q\xc8b@BGY>'
p2385
tp2386
Rp2387
sg14
F-0.005887805
sg15
F-0.005887887
sg16
g4
(g8
S'p\xe2\x83\x0c\xd8\x1dx\xbf'
p2388
tp2389
Rp2390
ssI700
(dp2391
g3
g4
(g8
S'\x02\xf2\x148\xa6\x08v>'
p2392
tp2393
Rp2394
sg14
F-0.0002049113
sg15
F-0.0002052658
sg16
g4
(g8
S'&\xe2\xcfM\x91\xdd*\xbf'
p2395
tp2396
Rp2397
ssI40000
(dp2398
g3
g4
(g8
S'\xef\xa2\x08\xce\xff0\x80>'
p2399
tp2400
Rp2401
sg14
F-0.01240584
sg15
F-0.01240626
sg16
g4
(g8
S'\n\x97\x17\\Nh\x89\xbf'
p2402
tp2403
Rp2404
ssI4000
(dp2405
g3
g4
(g8
S'\xf0\xc2B\x00\xfa\t\x7f>'
p2406
tp2407
Rp2408
sg14
F-0.00122991
sg15
F-0.001230398
sg16
g4
(g8
S'zq\x08\xbc\xdf&T\xbf'
p2409
tp2410
Rp2411
ssI200
(dp2412
g3
g4
(g8
S'(b\xe6\xbb\xe2bk>'
p2413
tp2414
Rp2415
sg14
F-4.967927e-05
sg15
F-4.980606e-05
sg16
g4
(g8
S't\xfd\xfbe^\x15\n\xbf'
p2416
tp2417
Rp2418
ssI75
(dp2419
g3
g4
(g8
S'\x1f\xbc\xc4W\xf5]O>'
p2420
tp2421
Rp2422
sg14
F-1.113679e-05
sg15
F-1.118874e-05
sg16
g4
(g8
S';E8y\x88j\xe7\xbe'
p2423
tp2424
Rp2425
ssI34000
(dp2426
g3
g4
(g8
S'Zm\xab\x93&vx>'
p2427
tp2428
Rp2429
sg14
F-0.01054331
sg15
F-0.01054364
sg16
g4
(g8
S'\x93\x94$j\xca\x97\x85\xbf'
p2430
tp2431
Rp2432
ssI7000
(dp2433
g3
g4
(g8
S'xN%Ja]a>'
p2434
tp2435
Rp2436
sg14
F-0.002161563
sg15
F-0.002161677
sg16
g4
(g8
S'\xcf\x93\xf8F7\xb5a\xbf'
p2437
tp2438
Rp2439
ssI28000
(dp2440
g3
g4
(g8
S'\xad\xcd\xea\xf1\xe5\ni>'
p2441
tp2442
Rp2443
sg14
F-0.008681173
sg15
F-0.008681337
sg16
g4
(g8
S'\x1c\x9f\xf4\xbbv\xc7\x81\xbf'
p2444
tp2445
Rp2446
ssI10000
(dp2447
g3
g4
(g8
S'\x81\x0e\x0eY\x08\x13T>'
p2448
tp2449
Rp2450
sg14
F-0.003093496
sg15
F-0.003093573
sg16
g4
(g8
S'\x7f\x0f\xf6\x9a\x9fWi\xbf'
p2451
tp2452
Rp2453
ssI100
(dp2454
g3
g4
(g8
S'\x94\xf0\x00\xc3?!O>'
p2455
tp2456
Rp2457
sg14
F-1.895237e-05
sg15
F-1.90064e-05
sg16
g4
(g8
S'w\r0\xc0\xec\xe5\xf3\xbe'
p2458
tp2459
Rp2460
ssI1000
(dp2461
g3
g4
(g8
S'<\xab\xde\x9e\xc8\x7fw>'
p2462
tp2463
Rp2464
sg14
F-0.0002982548
sg15
F-0.000298634
sg16
g4
(g8
S'\xb5w*\xf5\xdf\x8c3\xbf'
p2465
tp2466
Rp2467
ssI22000
(dp2468
g3
g4
(g8
S'\x8c\xc0\xe6\xa0!\x9de>'
p2469
tp2470
Rp2471
sg14
F-0.006818893
sg15
F-0.00681903
sg16
g4
(g8
S'\x13A\x8f\xa60\xee{\xbf'
p2472
tp2473
Rp2474
ssI500
(dp2475
g3
g4
(g8
S'E\xcaAX\xa2\xf4O>'
p2476
tp2477
Rp2478
sg14
F-0.0001430645
sg15
F-0.0001431209
sg16
g4
(g8
S'\x93\x14\xd3(I\xc1"\xbf'
p2479
tp2480
Rp2481
sssI14
(dp2482
I0
(dp2483
g3
g4
(g8
S'Qs\xd9^\x7f\xdch>'
p2484
tp2485
Rp2486
sg14
F1.074602e-05
sg15
F1.055698e-05
sg16
g4
(g8
S'\xd4\x933\x8bIY\xe6>'
p2487
tp2488
Rp2489
ssI16000
(dp2490
g3
g4
(g8
S'I\x9c\n\x12MdV>'
p2491
tp2492
Rp2493
sg14
F-0.004959272
sg15
F-0.004959347
sg16
g4
(g8
S'\x06\xcf[v6Pt\xbf'
p2494
tp2495
Rp2496
ssI900
(dp2497
g3
g4
(g8
S'\xc8\x8a1\xf5\xc2,}>'
p2498
tp2499
Rp2500
sg14
F-0.0002690551
sg15
F-0.0002695178
sg16
g4
(g8
S'\xfd\xce\x9b@!\xa31\xbf'
p2501
tp2502
Rp2503
ssI37000
(dp2504
g3
g4
(g8
S'\x8b\x89\x83\xa1\x8e\xa8x>'
p2505
tp2506
Rp2507
sg14
F-0.0114849
sg15
F-0.01148522
sg16
g4
(g8
S'Wl\x19\x93t\x85\x87\xbf'
p2508
tp2509
Rp2510
ssI400
(dp2511
g3
g4
(g8
S'\x93\x9f\x8a\xd4zBc>'
p2512
tp2513
Rp2514
sg14
F-0.000113773
sg15
F-0.0001139188
sg16
g4
(g8
S'\xa2f\xa5\xca[\xd7\x1d\xbf'
p2515
tp2516
Rp2517
ssI600
(dp2518
g3
g4
(g8
S'\x1f\xd4\x81\xb8c:a>'
p2519
tp2520
Rp2521
sg14
F-0.0001756068
sg15
F-0.000175715
sg16
g4
(g8
S"n\xb2\xf9\x82a\x06'\xbf"
p2522
tp2523
Rp2524
ssI31000
(dp2525
g3
g4
(g8
S'\x7f(\xc9\xcb\x9b\xd6l>'
p2526
tp2527
Rp2528
sg14
F-0.009621108
sg15
F-0.009621302
sg16
g4
(g8
S'V\xa7\x84\x90E\xb4\x83\xbf'
p2529
tp2530
Rp2531
ssI25
(dp2532
g3
g4
(g8
S'\xb3\xdd\x0c\xa6\x94Kj>'
p2533
tp2534
Rp2535
sg14
F2.942847e-06
sg15
F2.790454e-06
sg16
g4
(g8
S'\xd3b\x9ei\xc7\x1b\xc8>'
p2536
tp2537
Rp2538
ssI800
(dp2539
g3
g4
(g8
S'\x17w\xb3#o\x19z>'
p2540
tp2541
Rp2542
sg14
F-0.0002379008
sg15
F-0.0002383216
sg16
g4
(g8
S'\x895"\xa9G1/\xbf'
p2543
tp2544
Rp2545
ssI25000
(dp2546
g3
g4
(g8
S'`\x96\xe8r\xd0I\\>'
p2547
tp2548
Rp2549
sg14
F-0.007756461
sg15
F-0.007756552
sg16
g4
(g8
S'\xa2\xd2\xd5\x0fH\xc5\x7f\xbf'
p2550
tp2551
Rp2552
ssI300
(dp2553
g3
g4
(g8
S'z}\x06\x9e\x1a\xbaV>'
p2554
tp2555
Rp2556
sg14
F-8.27502e-05
sg15
F-8.282414e-05
sg16
g4
(g8
S'\x8d\xb4D\xc9\xa6\xb3\x15\xbf'
p2557
tp2558
Rp2559
ssI13000
(dp2560
g3
g4
(g8
S'\xa1\xa5j{\x06\xdf^>'
p2561
tp2562
Rp2563
sg14
F-0.0040277
sg15
F-0.004027806
sg16
g4
(g8
S'&\x14e\xe4g\x7fp\xbf'
p2564
tp2565
Rp2566
ssI50
(dp2567
g3
g4
(g8
S'w\x94\xc4*\xfb\x93`>'
p2568
tp2569
Rp2570
sg14
F-4.957882e-06
sg15
F-5.051416e-06
sg16
g4
(g8
S'\xdc1>^\x9e\xfd\xd4\xbe'
p2571
tp2572
Rp2573
ssI19000
(dp2574
g3
g4
(g8
S'\xca^\xd1\xd0\xa3~[>'
p2575
tp2576
Rp2577
sg14
F-0.005891642
sg15
F-0.005891731
sg16
g4
(g8
S'T\x99\no\xe0!x\xbf'
p2578
tp2579
Rp2580
ssI700
(dp2581
g3
g4
(g8
S'\x05\x9cV\x9b\xd1\x8bt>'
p2582
tp2583
Rp2584
sg14
F-0.0002064663
sg15
F-0.0002068122
sg16
g4
(g8
S'`\xcfc\xa8\xf8\x17+\xbf'
p2585
tp2586
Rp2587
ssI40000
(dp2588
g3
g4
(g8
S'\xdbj;\xaa\x0b\xf0\x7f>'
p2589
tp2590
Rp2591
sg14
F-0.01241701
sg15
F-0.01241745
sg16
g4
(g8
S'\x8aTW\x8e*n\x89\xbf'
p2592
tp2593
Rp2594
ssI4000
(dp2595
g3
g4
(g8
S'K\xdd\x8c\xe5fw~>'
p2596
tp2597
Rp2598
sg14
F-0.001231997
sg15
F-0.001232472
sg16
g4
(g8
S'jR/\x1f\x9b/T\xbf'
p2599
tp2600
Rp2601
ssI200
(dp2602
g3
g4
(g8
S'EiC\x19\x04\xd0Y>'
p2603
tp2604
Rp2605
sg14
F-5.15251e-05
sg15
F-5.162341e-05
sg16
g4
(g8
S'M\xc8\xa5N-\x0c\x0b\xbf'
p2606
tp2607
Rp2608
ssI75
(dp2609
g3
g4
(g8
S'J\xfc\xa6S\xabc\\>'
p2610
tp2611
Rp2612
sg14
F-1.282965e-05
sg15
F-1.291039e-05
sg16
g4
(g8
S'\xdd:\r=p\xfc\xea\xbe'
p2613
tp2614
Rp2615
ssI34000
(dp2616
g3
g4
(g8
S'\xa7kf\x90\xaeru>'
p2617
tp2618
Rp2619
sg14
F-0.01055263
sg15
F-0.01055291
sg16
g4
(g8
S'\x9d\xcd\x06@\xac\x9c\x85\xbf'
p2620
tp2621
Rp2622
ssI7000
(dp2623
g3
g4
(g8
S'\xb9\xfc\xd3p\x10\xc4]>'
p2624
tp2625
Rp2626
sg14
F-0.00216372
sg15
F-0.002163812
sg16
g4
(g8
S'y\xde\xfeA\xc7\xb9a\xbf'
p2627
tp2628
Rp2629
ssI28000
(dp2630
g3
g4
(g8
S'\xd8\xa5\xca\r\xcc\x08f>'
p2631
tp2632
Rp2633
sg14
F-0.008688571
sg15
F-0.008688712
sg16
g4
(g8
S'\xa7\xd86\xa1Z\xcb\x81\xbf'
p2634
tp2635
Rp2636
ssI10000
(dp2637
g3
g4
(g8
S'\xc2\xb2\x8bq6t\\>'
p2638
tp2639
Rp2640
sg14
F-0.003095948
sg15
F-0.003096023
sg16
g4
(g8
S'6\x96D\xbf\xbc\\i\xbf'
p2641
tp2642
Rp2643
ssI100
(dp2644
g3
g4
(g8
S'\x19JJ?\x17\x90O>'
p2645
tp2646
Rp2647
sg14
F-2.034357e-05
sg15
F-2.039704e-05
sg16
g4
(g8
S'c\x90\xf0\x1b\x94[\xf5\xbe'
p2648
tp2649
Rp2650
ssI1000
(dp2651
g3
g4
(g8
S'Yq\xa8d;\x8b|>'
p2652
tp2653
Rp2654
sg14
F-0.0002998204
sg15
F-0.0003002695
sg16
g4
(g8
S'\x01\x8e\x98#\x1b\xa73\xbf'
p2655
tp2656
Rp2657
ssI22000
(dp2658
g3
g4
(g8
S'-#M\xecj\x12c>'
p2659
tp2660
Rp2661
sg14
F-0.006824032
sg15
F-0.006824167
sg16
g4
(g8
S"\xb3'T\x03\x93\xf3{\xbf"
p2662
tp2663
Rp2664
ssI500
(dp2665
g3
g4
(g8
S'\x95\xea\x1a\xf1\x1a\xbcU>'
p2666
tp2667
Rp2668
sg14
F-0.0001446102
sg15
F-0.0001446851
sg16
g4
(g8
S'\xfc\x02:\xe83\xf5"\xbf'
p2669
tp2670
Rp2671
sssI15
(dp2672
I0
(dp2673
g3
g4
(g8
S'\x01}1\x87\x0fZ\\>'
p2674
tp2675
Rp2676
sg14
F1.456029e-05
sg15
F1.445124e-05
sg16
g4
(g8
S'\x05\x92\x03\xb2\xafq\xee>'
p2677
tp2678
Rp2679
ssI16000
(dp2680
g3
g4
(g8
S'L2\xdd\xa3X\xc2`>'
p2681
tp2682
Rp2683
sg14
F-0.004958947
sg15
F-0.004959043
sg16
g4
(g8
S'\t\xafH\xc5\xe5Ot\xbf'
p2684
tp2685
Rp2686
ssI900
(dp2687
g3
g4
(g8
S'\xa8\xbc\x0by%\x9fs>'
p2688
tp2689
Rp2690
sg14
F-0.0002654137
sg15
F-0.0002657373
sg16
g4
(g8
S'm\x8c\xeb\xb2\x15f1\xbf'
p2691
tp2692
Rp2693
ssI37000
(dp2694
g3
g4
(g8
S'\xbe\xd2\xc2\xd5:\xbfc>'
p2695
tp2696
Rp2697
sg14
F-0.01148363
sg15
F-0.01148377
sg16
g4
(g8
S'\xe2T5\x87\xc1\x84\x87\xbf'
p2698
tp2699
Rp2700
ssI400
(dp2701
g3
g4
(g8
S'\xd5\xfe\x9a\x88\xb5\x03W>'
p2702
tp2703
Rp2704
sg14
F-0.0001100506
sg15
F-0.0001101174
sg16
g4
(g8
S'\xfa\x1fG\x80l\xdb\x1c\xbf'
p2705
tp2706
Rp2707
ssI600
(dp2708
g3
g4
(g8
S'\x83T\xcc\x0e1dW>'
p2709
tp2710
Rp2711
sg14
F-0.0001717554
sg15
F-0.0001718407
sg16
g4
(g8
S'\xcd\x95\x85\xf4\xca\x84&\xbf'
p2712
tp2713
Rp2714
ssI31000
(dp2715
g3
g4
(g8
S'p\xdd\xb6\xde\xe5|g>'
p2716
tp2717
Rp2718
sg14
F-0.009619991
sg15
F-0.00962012
sg16
g4
(g8
S'\xe0\x89\x03\xe6\xad\xb3\x83\xbf'
p2719
tp2720
Rp2721
ssI25
(dp2722
g3
g4
(g8
S'\xa3\xc9\x06\xba\xae\xd0K>'
p2723
tp2724
Rp2725
sg14
F6.788685e-06
sg15
F6.749955e-06
sg16
g4
(g8
S'\x07\xeaq\xb7\xe8`\xdc>'
p2726
tp2727
Rp2728
ssI800
(dp2729
g3
g4
(g8
S'\xe6\xcbt\x89\x15\xb9~>'
p2730
tp2731
Rp2732
sg14
F-0.0002342984
sg15
F-0.0002348011
sg16
g4
(g8
S'\xeb\xa1\xf6\xd3\xab\xb8.\xbf'
p2733
tp2734
Rp2735
ssI25000
(dp2736
g3
g4
(g8
S'\x8c\x17(\xdb?\xe7\\>'
p2737
tp2738
Rp2739
sg14
F-0.007755617
sg15
F-0.007755734
sg16
g4
(g8
S'\r\x0bm\x01g\xc4\x7f\xbf'
p2740
tp2741
Rp2742
ssI300
(dp2743
g3
g4
(g8
S'a\xf0\nE/)W>'
p2744
tp2745
Rp2746
sg14
F-7.885419e-05
sg15
F-7.892576e-05
sg16
g4
(g8
S'o\xb1\xbc\xd2\xe1\xae\x14\xbf'
p2747
tp2748
Rp2749
ssI13000
(dp2750
g3
g4
(g8
S't\xd8\x04)\x80eZ>'
p2751
tp2752
Rp2753
sg14
F-0.004026073
sg15
F-0.004026166
sg16
g4
(g8
S'\xf2\x9dp^\xb6}p\xbf'
p2754
tp2755
Rp2756
ssI50
(dp2757
g3
g4
(g8
S'DK,\xb82\xd6Z>'
p2758
tp2759
Rp2760
sg14
F-1.034586e-06
sg15
F-1.117676e-06
sg16
g4
(g8
S'\x91\x84\xed\\\xb4\xf8\xb1\xbe'
p2761
tp2762
Rp2763
ssI19000
(dp2764
g3
g4
(g8
S'\xeb\xa6\xb4\xfe\xe7lV>'
p2765
tp2766
Rp2767
sg14
F-0.005891609
sg15
F-0.005891687
sg16
g4
(g8
S'\x9f*u\xfa\xd3!x\xbf'
p2768
tp2769
Rp2770
ssI700
(dp2771
g3
g4
(g8
S'\xcf>\xd4\x04\xcb\x18{>'
p2772
tp2773
Rp2774
sg14
F-0.0002029326
sg15
F-0.0002033578
sg16
g4
(g8
S'\x83\x15=\xdf%\x9b*\xbf'
p2775
tp2776
Rp2777
ssI40000
(dp2778
g3
g4
(g8
S'ez\xbapoMs>'
p2779
tp2780
Rp2781
sg14
F-0.01241491
sg15
F-0.01241515
sg16
g4
(g8
S'\x9c\x15G\xa1\tm\x89\xbf'
p2782
tp2783
Rp2784
ssI4000
(dp2785
g3
g4
(g8
S'>x>\xc05yx>'
p2786
tp2787
Rp2788
sg14
F-0.001229177
sg15
F-0.001229565
sg16
g4
(g8
S'`}vb\xc7#T\xbf'
p2789
tp2790
Rp2791
ssI200
(dp2792
g3
g4
(g8
S'\xc46\xbb\x95\xd0lV>'
p2793
tp2794
Rp2795
sg14
F-4.764149e-05
sg15
F-4.772403e-05
sg16
g4
(g8
S'\x8d(.\x1d.\xff\x08\xbf'
p2796
tp2797
Rp2798
ssI75
(dp2799
g3
g4
(g8
S'E\xef\xe2\x8b\xc6\xd7W>'
p2800
tp2801
Rp2802
sg14
F-8.479576e-06
sg15
F-8.570656e-06
sg16
g4
(g8
S'"\xfd\x8bD.\xdf\xe1\xbe'
p2803
tp2804
Rp2805
ssI34000
(dp2806
g3
g4
(g8
S'4\xe2#$vQl>'
p2807
tp2808
Rp2809
sg14
F-0.01055198
sg15
F-0.01055215
sg16
g4
(g8
S'5\x17\x92\xa6T\x9c\x85\xbf'
p2810
tp2811
Rp2812
ssI7000
(dp2813
g3
g4
(g8
S'\x19U\xbf\x0b\xec\xa8d>'
p2814
tp2815
Rp2816
sg14
F-0.002161387
sg15
F-0.002161521
sg16
g4
(g8
S',_\x99\xee\xe9\xb4a\xbf'
p2817
tp2818
Rp2819
ssI28000
(dp2820
g3
g4
(g8
S'\x17\xf2\x10\x04K\xb4`>'
p2821
tp2822
Rp2823
sg14
F-0.008687563
sg15
F-0.008687656
sg16
g4
(g8
S'\\\x88U\x87\xd0\xca\x81\xbf'
p2824
tp2825
Rp2826
ssI10000
(dp2827
g3
g4
(g8
S'C\xa8\\3P2b>'
p2828
tp2829
Rp2830
sg14
F-0.003093597
sg15
F-0.003093709
sg16
g4
(g8
S'T\xfc%\x85\xdbWi\xbf'
p2831
tp2832
Rp2833
ssI100
(dp2834
g3
g4
(g8
S'\x82m6\x91\x05\xfaY>'
p2835
tp2836
Rp2837
sg14
F-1.634584e-05
sg15
F-1.642124e-05
sg16
g4
(g8
S'\xd3\x01\x07\xc1\xec-\xf1\xbe'
p2838
tp2839
Rp2840
ssI1000
(dp2841
g3
g4
(g8
S'.\xa4\xaa\x84\xe7\x19u>'
p2842
tp2843
Rp2844
sg14
F-0.000296182
sg15
F-0.0002965131
sg16
g4
(g8
S'\xe0\x12\xc2!\xdci3\xbf'
p2845
tp2846
Rp2847
ssI22000
(dp2848
g3
g4
(g8
S'\xea\xba\x88\x8aJ\xaaY>'
p2849
tp2850
Rp2851
sg14
F-0.006823597
sg15
F-0.006823691
sg16
g4
(g8
S'\xac}\xacs\x1b\xf3{\xbf'
p2852
tp2853
Rp2854
ssI500
(dp2855
g3
g4
(g8
S'I\xc3\xe4)\xfc\xe5X>'
p2856
tp2857
Rp2858
sg14
F-0.000140726
sg15
F-0.0001408043
sg16
g4
(g8
S'\xe3\xfb\xde\xd4\x8ds"\xbf'
p2859
tp2860
Rp2861
sssI16
(dp2862
I0
(dp2863
g3
g4
(g8
S'\xc1\xe1H\xbe%Fb>'
p2864
tp2865
Rp2866
sg14
F1.348649e-05
sg15
F1.335612e-05
sg16
g4
(g8
S'\xce\xeb*4\xb20\xec>'
p2867
tp2868
Rp2869
ssI16000
(dp2870
g3
g4
(g8
S'VV#\xa6\x1f\xa9_>'
p2871
tp2872
Rp2873
sg14
F-0.004953948
sg15
F-0.004954054
sg16
g4
(g8
S'&\xfb\xa3\x03\xa4Jt\xbf'
p2874
tp2875
Rp2876
ssI900
(dp2877
g3
g4
(g8
S'n\x96\xd8Y\xca\xca\x7f>'
p2878
tp2879
Rp2880
sg14
F-0.0002656358
sg15
F-0.0002661381
sg16
g4
(g8
S'\xd6\xfb`\xbd\xbbi1\xbf'
p2881
tp2882
Rp2883
ssI37000
(dp2884
g3
g4
(g8
S'\xf3R\x08\xb4$\xbch>'
p2885
tp2886
Rp2887
sg14
F-0.01147699
sg15
F-0.01147715
sg16
g4
(g8
S'\x82j\xeb\xf6E\x81\x87\xbf'
p2888
tp2889
Rp2890
ssI400
(dp2891
g3
g4
(g8
S'59\xa4i\x0eWZ>'
p2892
tp2893
Rp2894
sg14
F-0.0001105615
sg15
F-0.0001106568
sg16
g4
(g8
S'\x99\xa3\xe7\x8f\x12\xff\x1c\xbf'
p2895
tp2896
Rp2897
ssI600
(dp2898
g3
g4
(g8
S'\xa7\xa4A\xa48dR>'
p2899
tp2900
Rp2901
sg14
F-0.0001728069
sg15
F-0.0001728774
sg16
g4
(g8
S'\xc7\xdd\x90\x91\xe3\xa7&\xbf'
p2902
tp2903
Rp2904
ssI31000
(dp2905
g3
g4
(g8
S'\xa8\xa1\x1f\x93@fe>'
p2906
tp2907
Rp2908
sg14
F-0.009613183
sg15
F-0.009613315
sg16
g4
(g8
S'\x16A\xcf#\x1a\xb0\x83\xbf'
p2909
tp2910
Rp2911
ssI25
(dp2912
g3
g4
(g8
S'h\xc5\xf4\xc9\x92/c>'
p2913
tp2914
Rp2915
sg14
F5.706787e-06
sg15
F5.59307e-06
sg16
g4
(g8
S'\x85i!\xdc(\xbd\xd7>'
p2916
tp2917
Rp2918
ssI800
(dp2919
g3
g4
(g8
S'\x96E4\xb1z$l>'
p2920
tp2921
Rp2922
sg14
F-0.0002345775
sg15
F-0.0002347982
sg16
g4
(g8
S'\xdc\x05.\xd7\x08\xc1.\xbf'
p2923
tp2924
Rp2925
ssI25000
(dp2926
g3
g4
(g8
S'\x8d\xb3\xc7\xfb~su>'
p2927
tp2928
Rp2929
sg14
F-0.007749568
sg15
F-0.00774977
sg16
g4
(g8
S'\xb9:M\x95\x19\xbe\x7f\xbf'
p2930
tp2931
Rp2932
ssI300
(dp2933
g3
g4
(g8
S'\x1e\x95Y\xc4\x11\rV>'
p2934
tp2935
Rp2936
sg14
F-7.92856e-05
sg15
F-7.937165e-05
sg16
g4
(g8
S'\x9f\xba\x06\x07\x87\xcb\x14\xbf'
p2937
tp2938
Rp2939
ssI13000
(dp2940
g3
g4
(g8
S'\x9b~<\x9e\xb2\xb8a>'
p2941
tp2942
Rp2943
sg14
F-0.004022429
sg15
F-0.004022525
sg16
g4
(g8
S'\xd1\x92\xbd$\xdfyp\xbf'
p2944
tp2945
Rp2946
ssI50
(dp2947
g3
g4
(g8
S'l\xd1\xa7\xb9\xf7\x9aY>'
p2948
tp2949
Rp2950
sg14
F-1.781764e-06
sg15
F-1.86104e-06
sg16
g4
(g8
S'\x16\x97\xfa\xe8\xffy\xbe\xbe'
p2951
tp2952
Rp2953
ssI19000
(dp2954
g3
g4
(g8
S'DS\x89\x85\xc3\xbe_>'
p2955
tp2956
Rp2957
sg14
F-0.005885618
sg15
F-0.005885716
sg16
g4
(g8
S'v)t\xb0\x92\x1bx\xbf'
p2958
tp2959
Rp2960
ssI700
(dp2961
g3
g4
(g8
S'w\xb9\n\x94\xe7^v>'
p2962
tp2963
Rp2964
sg14
F-0.0002038807
sg15
F-0.0002042515
sg16
g4
(g8
S'\xa7K\xb3\xaai\xbb*\xbf'
p2965
tp2966
Rp2967
ssI40000
(dp2968
g3
g4
(g8
S'NX\xa4L\x0e\x9al>'
p2969
tp2970
Rp2971
sg14
F-0.01240866
sg15
F-0.01240884
sg16
g4
(g8
S'j\x07\xef\xeb\xbei\x89\xbf'
p2972
tp2973
Rp2974
ssI4000
(dp2975
g3
g4
(g8
S'\xe15gooJa>'
p2976
tp2977
Rp2978
sg14
F-0.001228157
sg15
F-0.001228295
sg16
g4
(g8
S'\xb4\xcd\xb57\x97\x1fT\xbf'
p2979
tp2980
Rp2981
ssI200
(dp2982
g3
g4
(g8
S'z\x90\xb3Mn4^>'
p2983
tp2984
Rp2985
sg14
F-4.88551e-05
sg15
F-4.893734e-05
sg16
g4
(g8
S'u\xb9\x9e\xbcN\xa3\t\xbf'
p2986
tp2987
Rp2988
ssI75
(dp2989
g3
g4
(g8
S'\xfd0\x85kV\x15S>'
p2990
tp2991
Rp2992
sg14
F-9.756838e-06
sg15
F-9.832035e-06
sg16
g4
(g8
S'f\xb9\xac\xc2J\x94\xe4\xbe'
p2993
tp2994
Rp2995
ssI34000
(dp2996
g3
g4
(g8
S'z\x99\x88\xaar\xd2Z>'
p2997
tp2998
Rp2999
sg14
F-0.01054482
sg15
F-0.01054491
sg16
g4
(g8
S'\xc5\xc9I\x9d\x8a\x98\x85\xbf'
p3000
tp3001
Rp3002
ssI7000
(dp3003
g3
g4
(g8
S'\xefP\xf5\x04L\xc3c>'
p3004
tp3005
Rp3006
sg14
F-0.002159292
sg15
F-0.002159411
sg16
g4
(g8
S'\x82\xbd\x91\x92\x81\xb0a\xbf'
p3007
tp3008
Rp3009
ssI28000
(dp3010
g3
g4
(g8
S'\x05!Xv\xda\xaaW>'
p3011
tp3012
Rp3013
sg14
F-0.00868117
sg15
F-0.008681243
sg16
g4
(g8
S']\xb3\x8d\xacs\xc7\x81\xbf'
p3014
tp3015
Rp3016
ssI10000
(dp3017
g3
g4
(g8
S'@\xc7\x8dP\x14\xc0Y>'
p3018
tp3019
Rp3020
sg14
F-0.003091026
sg15
F-0.003091113
sg16
g4
(g8
S'\x0b \x8f\xb6qRi\xbf'
p3021
tp3022
Rp3023
ssI100
(dp3024
g3
g4
(g8
S't\xe4\xd3f\xb6\xb0S>'
p3025
tp3026
Rp3027
sg14
F-1.757983e-05
sg15
F-1.764772e-05
sg16
g4
(g8
S'\xc2F:\x96\xacx\xf2\xbe'
p3028
tp3029
Rp3030
ssI1000
(dp3031
g3
g4
(g8
S'\xd4\xe4A]IUu>'
p3032
tp3033
Rp3034
sg14
F-0.0002967745
sg15
F-0.0002971195
sg16
g4
(g8
S'qqq\x0f\nt3\xbf'
p3035
tp3036
Rp3037
ssI22000
(dp3038
g3
g4
(g8
S'\x80\x86g\xfd\xbd\xc7c>'
p3039
tp3040
Rp3041
sg14
F-0.006817649
sg15
F-0.006817788
sg16
g4
(g8
S'\x96\xbb\x88Y\xe6\xec{\xbf'
p3042
tp3043
Rp3044
ssI500
(dp3045
g3
g4
(g8
S'/\x80\xd3\xe0\xe5?Q>'
p3046
tp3047
Rp3048
sg14
F-0.0001417489
sg15
F-0.0001418113
sg16
g4
(g8
S'\xab\xfcZ\xe7h\x95"\xbf'
p3049
tp3050
Rp3051
sss.